Archive member included because of file (symbol)

../../lib/libc.a(memcmp.o)    ././tmsdown.o (memcmp)
../../lib/libc.a(memcpy.o)    ././tmsdown.o (memcpy)
../../lib/libc.a(memset.o)    ././tmsdown.o (memset)
../../lib/libc.a(strcmp.o)    ././key.o (strcmp)
../../lib/libc.a(strcpy.o)    ././tmsdown.o (strcpy)
../../lib/libc.a(strlen.o)    ././tmsdown.o (strlen)
../../lib/libc.a(strcat.o)    ././rtc.o (strcat)
../../lib/libc.a(strncmp.o)   ././htmlutil.o (strncmp)
../../lib/libc.a(strncpy.o)   ././utils.o (strncpy)
../../lib/libc.a(strchr.o)    ././htmlutil.o (strchr)
../../lib/libc.a(strstr.o)    ././gsm.o (strstr)
../../lib/libc.a(ctypef.o)    ././htmlutil.o (isalnum)
../../lib/libc.a(atof.o)      ././printer.o (atof)
../../lib/libc.a(atol.o)      ././rtc.o (atol)
../../lib/libc.a(atoi.o)      ././tmsdown.o (atoi)
../../lib/libc.a(strtol.o)    ../../lib/libc.a(atol.o) (strtol)
../../lib/libc.a(strtod.o)    ../../lib/libc.a(atof.o) (strtod)
../../lib/libc.a(sprintf.o)   ././tmsdown.o (sprintf)
../../lib/libc.a(vsprintf.o)  ../../lib/libc.a(sprintf.o) (__vsnprintf)
../../lib/libc.a(ctype.o)     ../../lib/libc.a(ctypef.o) (_ctype)
../../lib/libc.a(errno.o)     ../../lib/libc.a(strtol.o) (errno)
../../lib/libc.a(isinf.o)     ../../lib/libc.a(strtod.o) (isinf)
../../lib/libc.a(ldexp.o)     ../../lib/libc.a(strtod.o) (ldexp)
../../lib/libc.a(_doprnt.o)   ../../lib/libc.a(vsprintf.o) (vfprintf)
../../lib/libc.a(_iobdata.o)  ../../lib/libc.a(_doprnt.o) (_libc_data)
../../lib/libc.a(_iobfuncs.o)
                              ../../lib/libc.a(_iobdata.o) (_fflush_simple)
../../lib/libc.a(_iobstring.o)
                              ../../lib/libc.a(vsprintf.o) (_io_strfuncs)
../../lib/libc.a(flock.o)     ../../lib/libc.a(_doprnt.o) (flockfile)
../../lib/libc.a(modf.o)      ../../lib/libc.a(_doprnt.o) (modf)
../../lib/libc.a(_fwalk.o)    ../../lib/libc.a(flock.o) (_fwalk)
../../lib/libe.a(_muldf3.o)   ././key.o (__muldf3)
../../lib/libe.a(_adddf3.o)   ././scard.o (__adddf3)
../../lib/libe.a(_fixdfsi.o)  ././key.o (__fixdfsi)
../../lib/libe.a(_floatsidf.o)
                              ././scard.o (__floatsidf)
../../sdk/Bitel_Bitel.a(BITEL_TL.o)
                              ././scard.o (TL_SendReceive)
../../sdk/Bitel_Bitel.a(CryptoLib.o)
                              ././key.o (CryptoKeyLoad)
../../sdk/Bitel_Bitel.a(EMV_APP.o)
                              ././scard.o (gbIccAIDno)
../../sdk/Bitel_Bitel.a(EMV_CAT.o)
                              ../../sdk/Bitel_Bitel.a(EMV_APP.o) (TrmARC_Y1)
../../sdk/Bitel_Bitel.a(ISO8583.o)
                              ././htmlutil.o (asc2bcd)
../../sdk/Bitel_Bitel.a(KEYLIB.o)
                              ././rtc.o (ucKeyCnt)
../../sdk/Bitel_Bitel.a(KEYPAD.o)
                              ././scard.o (gbLangCode)
../../sdk/Bitel_Bitel.a(LCDLIB.o)
                              ../../sdk/Bitel_Bitel.a(KEYLIB.o) (CursorOn)
../../sdk/Bitel_Bitel.a(RTCLIB.o)
                              ../../sdk/Bitel_Bitel.a(KEYLIB.o) (CheckLeapMonth)
../../sdk/Bitel_Bitel.a(RTCLIB2.o)
                              ././tmsdown.o (RTC_GetDateTime)
../../sdk/Bitel_Bitel.a(TIMERLIB.o)
                              ../../sdk/Bitel_Bitel.a(KEYPAD.o) (WaitKeyPress10MS)
../../sdk/Bitel_Bitel.a(UTILLIB.o)
                              ././printer.o (IndianNo2FarsiNo)
../../sdk/Bitel_Bitel.a(_ledf2.o)
                              ../../sdk/Bitel_Bitel.a(EMV_APP.o) (__ledf2)
../../sdk/Bitel_Bitel.a(_orderdf2.o)
                              ../../sdk/Bitel_Bitel.a(_ledf2.o) (__orderdf2)
../../sdk/Bitel_Bitel.a(asmutil.o)
                              ./../../Object/cstartup.o (MEMSZIELIMIT_TABLE)
../../sdk/Bitel_Bitel.a(btutils.o)
                              ././reftable.o (utils_function)
../../sdk/Bitel_Bitel.a(emv_APDU.o)
                              ././scard.o (gem_Protocol)
../../sdk/Bitel_Bitel.a(emv_init.o)
                              ../../sdk/Bitel_Bitel.a(BITEL_TL.o) (emv_init)
../../sdk/Bitel_Bitel.a(emv_power_up.o)
                              ../../sdk/Bitel_Bitel.a(BITEL_TL.o) (emv_power_up)
../../sdk/Bitel_Bitel.a(emv_set_slot_info.o)
                              ../../sdk/Bitel_Bitel.a(emv_power_up.o) (emv_set_slot_info)
../../sdk/Bitel_Bitel.a(emv_t1.o)
                              ../../sdk/Bitel_Bitel.a(emv_power_up.o) (emv_t1_block)
../../sdk/Bitel_Bitel.a(emv_timer.o)
                              ../../sdk/Bitel_Bitel.a(emv_power_up.o) (emv_timer_halt)
../../sdk/Bitel_Bitel.a(emv_transmit.o)
                              ../../sdk/Bitel_Bitel.a(BITEL_TL.o) (emv_transmit)
../../sdk/Bitel_Bitel.a(gem_TL.o)
                              ././scard.o (GemSlotNo)
../../sdk/Bitel_Bitel.a(hal_apm.o)
                              ../../sdk/Bitel_Bitel.a(emv_timer.o) (hal_apm_get_clock_frequency)
../../sdk/Bitel_Bitel.a(hal_apm_clock.o)
                              ../../sdk/Bitel_Bitel.a(hal_apm.o) (hal_apm_change_clock_frequency)
../../sdk/Bitel_Bitel.a(hal_flash.o)
                              ../../sdk/Bitel_Bitel.a(hal_apm.o) (hal_flash_init)
../../sdk/Bitel_Bitel.a(hal_intr.o)
                              ../../sdk/Bitel_Bitel.a(hal_apm.o) (hal_interrupt_attach)
../../sdk/Bitel_Bitel.a(hal_intr_mask.o)
                              ../../sdk/Bitel_Bitel.a(hal_apm.o) (hal_interrupt_mask)
../../sdk/Bitel_Bitel.a(hal_libc.o)
                              ../../sdk/Bitel_Bitel.a(emv_power_up.o) (hal_memcmp)
../../sdk/Bitel_Bitel.a(hal_scs_attach.o)
                              ../../sdk/Bitel_Bitel.a(emv_power_up.o) (hal_scs_attach)
../../sdk/Bitel_Bitel.a(hal_scs_cancel.o)
                              ../../sdk/Bitel_Bitel.a(emv_timer.o) (hal_scs_cancel)
../../sdk/Bitel_Bitel.a(hal_scs_dev.o)
                              ../../sdk/Bitel_Bitel.a(hal_scs_cancel.o) (hal_scs_dev_cancel_transfer)
../../sdk/Bitel_Bitel.a(hal_scs_get_last_error.o)
                              ../../sdk/Bitel_Bitel.a(emv_power_up.o) (hal_scs_get_last_error)
../../sdk/Bitel_Bitel.a(hal_scs_get_slot_info.o)
                              ../../sdk/Bitel_Bitel.a(emv_power_up.o) (hal_scs_get_slot_info)
../../sdk/Bitel_Bitel.a(hal_scs_get_status.o)
                              ../../sdk/Bitel_Bitel.a(BITEL_TL.o) (hal_scs_get_status)
../../sdk/Bitel_Bitel.a(hal_scs_init.o)
                              ../../sdk/Bitel_Bitel.a(emv_init.o) (hal_scs_init)
../../sdk/Bitel_Bitel.a(hal_scs_ioctl.o)
                              ../../sdk/Bitel_Bitel.a(emv_power_up.o) (hal_scs_ioctl)
../../sdk/Bitel_Bitel.a(hal_scs_isr.o)
                              ../../sdk/Bitel_Bitel.a(hal_scs_init.o) (hal_scs_isr0)
../../sdk/Bitel_Bitel.a(hal_scs_power_down.o)
                              ../../sdk/Bitel_Bitel.a(BITEL_TL.o) (hal_scs_power_down)
../../sdk/Bitel_Bitel.a(hal_scs_power_up.o)
                              ../../sdk/Bitel_Bitel.a(emv_power_up.o) (hal_scs_power_up)
../../sdk/Bitel_Bitel.a(hal_scs_pps_exchange.o)
                              ../../sdk/Bitel_Bitel.a(emv_power_up.o) (hal_scs_pps_exchange)
../../sdk/Bitel_Bitel.a(hal_scs_set_config.o)
                              ../../sdk/Bitel_Bitel.a(hal_scs_init.o) (hal_scs_set_config)
../../sdk/Bitel_Bitel.a(hal_scs_set_slot_info.o)
                              ../../sdk/Bitel_Bitel.a(emv_power_up.o) (hal_scs_set_slot_info)
../../sdk/Bitel_Bitel.a(hal_scs_t1_block.o)
                              ../../sdk/Bitel_Bitel.a(emv_t1.o) (hal_scs_t1_block)
../../sdk/Bitel_Bitel.a(hal_scs_vsr_power_up.o)
                              ../../sdk/Bitel_Bitel.a(hal_scs_power_up.o) (hal_scs_vsr_power_up)
../../sdk/Bitel_Bitel.a(hal_scs_vsr_pps_exchange.o)
                              ../../sdk/Bitel_Bitel.a(hal_scs_pps_exchange.o) (hal_scs_vsr_pps_exchange)
../../sdk/Bitel_Bitel.a(hal_scs_vsr_t1_block.o)
                              ../../sdk/Bitel_Bitel.a(hal_scs_t1_block.o) (hal_scs_vsr_t1_block)
../../sdk/Bitel_Bitel.a(hal_sys_alloc.o)
                              ../../sdk/Bitel_Bitel.a(emv_init.o) (hal_sys_pool_init)
../../sdk/Bitel_Bitel.a(hal_timer.o)
                              ../../sdk/Bitel_Bitel.a(emv_timer.o) (hal_timer_init)
../../sdk/Bitel_Bitel.a(libc.o)
                              ../../lib/libc.a(_doprnt.o) (__umoddi3)
../../sdk/Bitel_Bitel.a(ppdrv.o)
                              ././main.o (InitPinpadDrv)
../../sdk/Bitel_Bitel.a(prtutil.o)
                              ../../sdk/Bitel_Bitel.a(btutils.o) (DOT2BIT)
../../sdk/Bitel_Bitel.a(r_enhanc.o)
                              ../../sdk/Bitel_Bitel.a(CryptoLib.o) (R_DigestInit)
../../sdk/Bitel_Bitel.a(r_keygen.o)
                              ../../sdk/Bitel_Bitel.a(CryptoLib.o) (R_GeneratePEMKeys)
../../sdk/Bitel_Bitel.a(r_random.o)
                              ../../sdk/Bitel_Bitel.a(CryptoLib.o) (R_RandomInit)
../../sdk/Bitel_Bitel.a(rand.o)
                              ../../sdk/Bitel_Bitel.a(EMV_APP.o) (rand)
../../sdk/Bitel_Bitel.a(rsa.o)
                              ../../sdk/Bitel_Bitel.a(r_enhanc.o) (RSAPublicEncrypt)
../../sdk/Bitel_Bitel.a(sc_at83c26.o)
                              ../../sdk/Bitel_Bitel.a(BITEL_TL.o) (at83c26_io)
../../sdk/Bitel_Bitel.a(shsc.o)
                              ../../sdk/Bitel_Bitel.a(r_enhanc.o) (SHSInit)
../../sdk/Bitel_Bitel.a(DES_ECB.o)
                              ../../sdk/Bitel_Bitel.a(ppdrv.o) (des)
../../sdk/Bitel_Bitel.a(FRMWRI.o)
                              ../../sdk/Bitel_Bitel.a(libc.o) (_formatted_write)
../../sdk/Bitel_Bitel.a(NN.o)
                              ../../sdk/Bitel_Bitel.a(rsa.o) (NN_Decode)
../../sdk/Bitel_Bitel.a(_divdf3.o)
                              ../../sdk/Bitel_Bitel.a(FRMWRI.o) (__divdf3)
../../sdk/Bitel_Bitel.a(_gedf2.o)
                              ../../sdk/Bitel_Bitel.a(FRMWRI.o) (__gedf2)
../../sdk/Bitel_Bitel.a(_ltdf2.o)
                              ../../sdk/Bitel_Bitel.a(FRMWRI.o) (__ltdf2)
../../sdk/Bitel_Bitel.a(_nedf2.o)
                              ../../sdk/Bitel_Bitel.a(FRMWRI.o) (__nedf2)
../../sdk/Bitel_Bitel.a(at83c26_api.o)
                              ../../sdk/Bitel_Bitel.a(sc_at83c26.o) (c26_general_init)
../../sdk/Bitel_Bitel.a(at83c26_lib.o)
                              ../../sdk/Bitel_Bitel.a(sc_at83c26.o) (c26_read_command)
../../sdk/Bitel_Bitel.a(desc.o)
                              ../../sdk/Bitel_Bitel.a(r_enhanc.o) (DES_CBCInit)
../../sdk/Bitel_Bitel.a(emv_atr.o)
                              ../../sdk/Bitel_Bitel.a(emv_power_up.o) (emv_atr_parse)
../../sdk/Bitel_Bitel.a(emv_t0.o)
                              ../../sdk/Bitel_Bitel.a(emv_transmit.o) (emv_t0_transmit)
../../sdk/Bitel_Bitel.a(fputc.o)
                              ../../sdk/Bitel_Bitel.a(libc.o) (fputc)
../../sdk/Bitel_Bitel.a(hal_i2c.o)
                              ../../sdk/Bitel_Bitel.a(sc_at83c26.o) (hal_i2c_init)
../../sdk/Bitel_Bitel.a(hal_scs_analog.o)
                              ../../sdk/Bitel_Bitel.a(hal_scs_power_up.o) (hal_scs_analog_check)
../../sdk/Bitel_Bitel.a(hal_scs_clock.o)
                              ../../sdk/Bitel_Bitel.a(hal_scs_set_config.o) (hal_scs_set_clock)
../../sdk/Bitel_Bitel.a(hal_scs_counter.o)
                              ../../sdk/Bitel_Bitel.a(hal_scs_power_up.o) (hal_scs_counter_etu_set)
../../sdk/Bitel_Bitel.a(hal_scs_handler.o)
                              ../../sdk/Bitel_Bitel.a(hal_scs_vsr_power_up.o) (hal_scs_handler_parity)
../../sdk/Bitel_Bitel.a(hal_scs_t0_in.o)
                              ../../sdk/Bitel_Bitel.a(emv_t0.o) (hal_scs_t0_in)
../../sdk/Bitel_Bitel.a(hal_scs_t0_out.o)
                              ../../sdk/Bitel_Bitel.a(emv_t0.o) (hal_scs_t0_out)
../../sdk/Bitel_Bitel.a(hal_scs_vsr_t0_in.o)
                              ../../sdk/Bitel_Bitel.a(hal_scs_t0_in.o) (hal_scs_vsr_t0_in)
../../sdk/Bitel_Bitel.a(hal_scs_vsr_t0_out.o)
                              ../../sdk/Bitel_Bitel.a(hal_scs_t0_out.o) (hal_scs_vsr_t0_out)
../../sdk/Bitel_Bitel.a(lebRS232.o)
                              ../../sdk/Bitel_Bitel.a(libc.o) (Bitel_RS_printf)
../../sdk/Bitel_Bitel.a(libEncryption.o)
                              ../../sdk/Bitel_Bitel.a(r_enhanc.o) (MD5Init)
../../sdk/Bitel_Bitel.a(libPorts.o)
                              ../../sdk/Bitel_Bitel.a(lebRS232.o) (Bitel_Com0_Init)
../../sdk/Bitel_Bitel.a(lib_timer.o)
                              ../../sdk/Bitel_Bitel.a(lebRS232.o) (Bitel_Wait_Wait_1_MS)
../../sdk/Bitel_Bitel.a(md2c.o)
                              ../../sdk/Bitel_Bitel.a(r_enhanc.o) (MD2Init)
../../sdk/Bitel_Bitel.a(md4c.o)
                              ../../sdk/Bitel_Bitel.a(r_enhanc.o) (MD4Init)
../../sdk/Bitel_Bitel.a(prime.o)
                              ../../sdk/Bitel_Bitel.a(r_keygen.o) (GeneratePrime)
../../sdk/Bitel_Bitel.a(prtfont.o)
                              ../../sdk/Bitel_Bitel.a(prtutil.o) (PRTFENG)
../../sdk/Bitel_Bitel.a(r_encode.o)
                              ../../sdk/Bitel_Bitel.a(r_enhanc.o) (R_EncodePEMBlock)
../../sdk/Bitel_Bitel.a(_addsf3.o)
                              ../../sdk/Bitel_Bitel.a(libEncryption.o) (__addsf3)
../../sdk/Bitel_Bitel.a(_extendsfdf2.o)
                              ../../sdk/Bitel_Bitel.a(libEncryption.o) (__extendsfdf2)
../../sdk/Bitel_Bitel.a(_fixsfsi.o)
                              ../../sdk/Bitel_Bitel.a(libEncryption.o) (__fixsfsi)
../../sdk/Bitel_Bitel.a(_floatsisf.o)
                              ../../sdk/Bitel_Bitel.a(libEncryption.o) (__floatsisf)
../../sdk/Bitel_Bitel.a(_truncdfsf2.o)
                              ../../sdk/Bitel_Bitel.a(libEncryption.o) (__truncdfsf2)

Allocating common symbols
Common symbol       size              file

sz17EncypritedCardPIN
                    0x11              ././apppos.o
PEDT_IPOINT         0x4               ../../sdk/Bitel_Bitel.a(ppdrv.o)
c65DotorCommaString
                    0x41              ../../sdk/Bitel_Bitel.a(KEYLIB.o)
D                   0x4               ../../sdk/Bitel_Bitel.a(shsc.o)
usTrxnLogIndex      0x2               ././apppos.o
rx_status           0x1               ../../sdk/Bitel_Bitel.a(libc.o)
tPOSUtilBuf         0x2000            ././flash.o
c65TempKeyBuf       0x41              ././key.o
RAM_hal_flash_erase
                    0x4               ../../sdk/Bitel_Bitel.a(hal_flash.o)
st_TrxnReqData      0xc08             ././apppos.o
usPrintingFinish10MSTimer
                    0x2               ././printer.o
RS232StremPtr       0x4               ../../sdk/Bitel_Bitel.a(lebRS232.o)
sz5ExpiryDate       0x5               ././msr.o
ucKeyCnt            0x1               ../../sdk/Bitel_Bitel.a(KEYLIB.o)
usColonOn1MSTimer   0x2               ././rtc.o
DebugCom0           0x4               ../../sdk/Bitel_Bitel.a(lebRS232.o)
Request_Array       0x5               ../../sdk/Bitel_Bitel.a(libc.o)
pstHotCard          0x4               ././flash.o
F048aL3_sz1003BillPaymentData1
                    0x3eb             ././apppos.o
SMS_Read_RX_ptr     0x4               ../../sdk/Bitel_Bitel.a(libc.o)
ucTxBuf             0x2000            ././modem.o
isDetectCard        0x4               ././msr.o
PRIVATE_KEY2        0x584             ../../sdk/Bitel_Bitel.a(CryptoLib.o)
BitelucCheckColonTimerFlag
                    0x1               ../../sdk/Bitel_Bitel.a(libc.o)
RAM_hal_flash_unprotect
                    0x4               ../../sdk/Bitel_Bitel.a(hal_flash.o)
Paper_Flags         0x4               ../../sdk/Bitel_Bitel.a(libc.o)
sz29OrganizationAccount
                    0x1d              ././apppos.o
iModemTestTotalCnt  0x4               ././hwtest.o
ucRxBuf             0x2000            ././modem.o
BitelusColonOn1MSTimer
                    0x2               ../../sdk/Bitel_Bitel.a(libc.o)
ucGprsGsmModel      0x1               ././gsm.o
ucGprsCheckDisconnectCnt
                    0x1               ././gsm.o
PEDT_BUFFER         0x100             ../../sdk/Bitel_Bitel.a(ppdrv.o)
ucModemTestFlag     0x1               ././hwtest.o
c65TempBuf          0x41              ././key.o
iRS232RxCnt         0x4               ././rs232.o
sz20PAN             0x14              ././msr.o
BitelucLCDBacklightOnFlag
                    0x1               ../../sdk/Bitel_Bitel.a(libc.o)
nextque             0x4               ../../sdk/Bitel_Bitel.a(libc.o)
Total_Amount_MAX    0x14              ../../sdk/Bitel_Bitel.a(KEYPAD.o)
ucTempSec           0x1               ././rtc.o
stEmvApp            0xf2              ././flash.o
TxDBUF              0x800             ././scard.o
iFlashTrxnLogSectorNo
                    0x4               ././flash.o
tPOSUtilInfo        0x18              ././flash.o
ucGprsCmdRetryCnt   0x1               ././gsm.o
ucGprsModuleOkFlag  0x1               ././gsm.o
pstBinTable         0x4               ././flash.o
stEmvRevokeCapk     0x9               ././flash.o
TrmTCC              0x1               ././scard.o
pstAppList          0x4               ././flash.o
sSelectedMenuItemLine
                    0x2               ././utils.o
ucGprsPowerOffFlag  0x1               ././gsm.o
sz38Track2Data      0x26              ././msr.o
PEDR_MPOINT         0x4               ../../sdk/Bitel_Bitel.a(ppdrv.o)
ucCheckColonTimerFlag
                    0x1               ././rtc.o
PEDR_IPOINT         0x4               ../../sdk/Bitel_Bitel.a(ppdrv.o)
ucGprsBerValue      0x1               ././gsm.o
ucReqDataReadyFlag  0x1               ././modem.o
usMsgType           0x2               ././apppos.o
BitelucCurrencyExp  0x1               ../../sdk/Bitel_Bitel.a(libc.o)
SIMerror            0x4               ../../sdk/Bitel_Bitel.a(libc.o)
pgbPOSEntryMode     0x4               ../../sdk/Bitel_Bitel.a(EMV_APP.o)
A                   0x4               ../../sdk/Bitel_Bitel.a(shsc.o)
tBuf1               0x80              ../../sdk/Bitel_Bitel.a(CryptoLib.o)
gbScBuf             0x20              ../../sdk/Bitel_Bitel.a(emv_APDU.o)
sz9BackupMerchantID
                    0x10              ././apppos.o
ComMsgNo            0x4               ../../sdk/Bitel_Bitel.a(libc.o)
ucGprsRssiRetryCnt  0x1               ././gsm.o
gbGrBuf             0x10000           ../../sdk/Bitel_Bitel.a(libc.o)
SMS_Read_RX_Stream  0x800             ../../sdk/Bitel_Bitel.a(libc.o)
gsTrmTAC            0xf               ../../sdk/Bitel_Bitel.a(EMV_APP.o)
CardNo2             0x34              ././scard.o
GemSlotOpen         0x4               ../../sdk/Bitel_Bitel.a(gem_TL.o)
ucBlackListExistFlag
                    0x1               ././apppos.o
lTMSAutoDownloadTried1SECTimer
                    0x4               ././tmsdown.o
ucAutoTMSDownloadFirstFlag
                    0x1               ././tmsdown.o
giTransactionType   0x4               ././gsm.o
ucBuyTrxnType       0x1               ././apppos.o
sTMSDownloadSectorNo
                    0x2               ././tmsdown.o
Paper_Exist         0x4               ../../sdk/Bitel_Bitel.a(libc.o)
iMaxDBCtrlIndex     0x4               ././apppos.o
usMainStatus        0x2               ././key.o
giScLen             0x4               ../../sdk/Bitel_Bitel.a(emv_APDU.o)
lMaxLogAddr         0x4               ././apppos.o
EXTFONTBUF          0x80              ././sfontlib.o
pgsTrmTVR           0x4               ../../sdk/Bitel_Bitel.a(EMV_APP.o)
sz18GsmOperator     0x12              ././gsm.o
TrmAcquirerID       0x6               ././scard.o
PUBLIC_KEY2         0x204             ../../sdk/Bitel_Bitel.a(CryptoLib.o)
emvref              0x3c              ../../sdk/Bitel_Bitel.a(EMV_APP.o)
stSessionKey        0x200             ././flash.o
usRS232TaskStep     0x2               ././rs232.o
ucAutoTMSDownloadDateFlag
                    0x1               ././tmsdown.o
cMaxInputCnt        0x1               ././key.o
hal_timer_initialized
                    0x10              ../../sdk/Bitel_Bitel.a(hal_timer.o)
RAM_hal_flash_get_info
                    0x4               ../../sdk/Bitel_Bitel.a(hal_flash.o)
gbDDFstackHead      0x1               ../../sdk/Bitel_Bitel.a(EMV_APP.o)
pusServiceAddr      0x4               ././key.o
c65CommaAndDotString
                    0x41              ././key.o
usBackupMsgType     0x2               ././apppos.o
SCS_SlotOpen        0x4               ../../sdk/Bitel_Bitel.a(BITEL_TL.o)
usEodTrxnCount      0x2               ././apppos.o
ucDateTimeRefreshFlag
                    0x1               ././rtc.o
ucDisconnectCnt     0x1               ././modem.o
cXPos               0x1               ././key.o
ucPrintError        0x1               ././printer.o
c9ActiveTrxnMenuType
                    0x9               ././apppos.o
usBackupTransType   0x2               ././apppos.o
BitelucLCDContrast  0x1               ../../sdk/Bitel_Bitel.a(libc.o)
sz9POSSetupInfoDate
                    0x9               ././main.o
usReversalPrint10MSTimer
                    0x2               ././key.o
dBuyAmount          0x8               ././apppos.o
ucGprsSIMStatus     0x1               ././gsm.o
CardNo1             0x70              ././scard.o
pstfSavingTrxnLog   0x4               ././apppos.o
TrmType             0x1               ././scard.o
tCipherText         0x80              ../../sdk/Bitel_Bitel.a(CryptoLib.o)
TrmCapaAdditional   0x5               ././scard.o
gbExtPinPadFound    0x1               ././scard.o
TrmCapa             0x3               ././scard.o
paperflg            0x4               ../../sdk/Bitel_Bitel.a(libc.o)
pgsTrmCVMR          0x4               ../../sdk/Bitel_Bitel.a(EMV_APP.o)
SCS_Mode            0x1               ../../sdk/Bitel_Bitel.a(BITEL_TL.o)
BitelucFarsiFlag    0x1               ../../sdk/Bitel_Bitel.a(libc.o)
sTotalMenuItemNo    0x2               ././utils.o
preque              0x4               ../../sdk/Bitel_Bitel.a(libc.o)
gSysTimer           0x2               ././scard.o
TagStack            0x200             ././htmlutil.o
ucReqDataTxFlag     0x1               ././modem.o
stringx             0x3e8             ../../sdk/Bitel_Bitel.a(libEncryption.o)
AESkeyIntialized    0x4               ../../sdk/Bitel_Bitel.a(CryptoLib.o)
ucSCS_Protocol      0x1               ../../sdk/Bitel_Bitel.a(BITEL_TL.o)
ucTrxnTxBuf         0x2000            ././modem.o
sz77Track1Data      0x4d              ././msr.o
usRS23210MSMaxTimeout
                    0x2               ././rs232.o
sz9BackupTerminalID
                    0x9               ././apppos.o
lTMSDownlaodDataPacketMaxBytes
                    0x4               ././tmsdown.o
usLCDBackLightOn10MSTimer
                    0x2               ././rtc.o
B                   0x4               ../../sdk/Bitel_Bitel.a(shsc.o)
lMinLogAddr         0x4               ././apppos.o
ucAutoTMSDownloadTimeFlag
                    0x1               ././tmsdown.o
pstfLastTrxnLog     0x4               ././apppos.o
ucGprsDLESetFlag    0x1               ././gsm.o
ucGprsRegistrationStatus
                    0x1               ././gsm.o
ucBGTCounterReception
                    0x1               ../../sdk/Bitel_Bitel.a(hal_scs_vsr_t1_block.o)
RealTime            0x8               ././rtc.o
RAM_hal_flash_shutdown
                    0x4               ../../sdk/Bitel_Bitel.a(hal_flash.o)
usWaittime          0x2               ../../sdk/Bitel_Bitel.a(KEYPAD.o)
iRxSize             0x4               ././modem.o
CardAcceptorMerchantID
                    0xf               ././scard.o
SvrPlainText        0x100             ../../sdk/Bitel_Bitel.a(CryptoLib.o)
sz13CardPIN         0xd               ././apppos.o
allready_powered_down
                    0x4               ../../sdk/Bitel_Bitel.a(sc_at83c26.o)
SystemHardware      0x60              ../../sdk/Bitel_Bitel.a(libc.o)
ucTrxnRxBuf         0x2000            ././modem.o
tagName             0x40              ././htmlutil.o
usPrintAutoSecondReceipt10MSTimer
                    0x2               ././printer.o
sTMSDownlaodDataPacketSize
                    0x2               ././tmsdown.o
sz4CardServiceCode  0x4               ././msr.o
C                   0x4               ../../sdk/Bitel_Bitel.a(shsc.o)
tBuf2               0x80              ../../sdk/Bitel_Bitel.a(CryptoLib.o)
gsXRec              0x100             ././scard.o
GemSlotNo           0x4               ../../sdk/Bitel_Bitel.a(gem_TL.o)
Total_Amount        0x10              ././scard.o
PEDR_COUNT          0x4               ../../sdk/Bitel_Bitel.a(ppdrv.o)
pgsTrmCAPA          0x4               ../../sdk/Bitel_Bitel.a(EMV_APP.o)
gsICCardPK          0x204             ../../sdk/Bitel_Bitel.a(EMV_CAT.o)
at83c26_selected_device
                    0x4               ../../sdk/Bitel_Bitel.a(sc_at83c26.o)
emv_handles         0x18              ../../sdk/Bitel_Bitel.a(emv_init.o)
hal_timer_vsr       0x10              ../../sdk/Bitel_Bitel.a(hal_timer.o)
ucReversalFlag      0x1               ././apppos.o
_AHN_KeyLoad        0x4               ../../sdk/Bitel_Bitel.a(CryptoLib.o)
gbDDFstackTail      0x1               ../../sdk/Bitel_Bitel.a(EMV_APP.o)
gsIsuIAC            0xf               ../../sdk/Bitel_Bitel.a(EMV_APP.o)
pGrBuf              0x4               ../../sdk/Bitel_Bitel.a(libc.o)
hal_scs_dev         0x2b8             ../../sdk/Bitel_Bitel.a(hal_scs_dev.o)
GPRS_bearer_Retry   0x4               ././gsm.o
hal_sys_pool_head   0x4               ../../sdk/Bitel_Bitel.a(hal_sys_alloc.o)
ucTMSDownloadRetryCnt
                    0x1               ././tmsdown.o
tDataBuf            0x800             ../../sdk/Bitel_Bitel.a(CryptoLib.o)
pgsTrmTSI           0x4               ../../sdk/Bitel_Bitel.a(EMV_APP.o)
gsmptr              0x4               ../../sdk/Bitel_Bitel.a(libc.o)
sStartDisplayMenuLine
                    0x2               ././utils.o
BitelucTempMin      0x1               ../../sdk/Bitel_Bitel.a(libc.o)
ucGprsBearerOpenedFlag
                    0x1               ././gsm.o
LcdDispBuf          0x400             ././sfontlib.o
SelectedAID         0x11              ././scard.o
iRxCnt              0x4               ././modem.o
first_dcdcb_start   0x4               ../../sdk/Bitel_Bitel.a(sc_at83c26.o)
RxDBUF              0x800             ././scard.o
usAutoReversal10MSTimer
                    0x2               ././key.o
GSMProcess          0x4               ../../sdk/Bitel_Bitel.a(libc.o)
TrmRxDataBuf        0x100             ../../sdk/Bitel_Bitel.a(CryptoLib.o)
ucRS232RxBuf        0x2000            ././rs232.o
sVirtualKey         0x2               ././key.o
sz19BillID          0x13              ././apppos.o
Printer_Finish      0x4               ../../sdk/Bitel_Bitel.a(libc.o)
usWipCmdRetryCnt    0x2               ././gsm.o
POSSerialNr         0x8               ././scard.o
giTLVBufTotalLen    0x4               ././htmlutil.o
stEmvCapk           0x152             ././flash.o
iStartDBCtrlIndex   0x4               ././apppos.o
lFlashSectorSize    0x4               ././flash.o
pusReqSequence      0x4               ././gsm.o
ucGprsRegistrationRetryCnt
                    0x1               ././gsm.o
sTempKey            0x2               ././key.o
sz17ProgramDate     0x11              ././main.o
usGprs10MSMaxTimeout
                    0x2               ././gsm.o
CDMATelNo           0x14              ../../sdk/Bitel_Bitel.a(libc.o)
ucSIMChargeOperatorCode
                    0x1               ././apppos.o
st_ErrRespData      0x3c              ././apppos.o
sz13Amount          0xd               ././apppos.o
st_TrxnRespData     0xc1c             ././apppos.o
usTransType         0x2               ././apppos.o
TraceNr             0x2               ././scard.o
tTMSDownloadInfo    0x100             ././tmsdown.o
sz27CardholderName  0x1b              ././msr.o
gPageTable          0x2bf20           ../../sdk/Bitel_Bitel.a(libc.o)
stBinTable          0x1000            ././flash.o
sz17HWInfo          0x11              ././main.o
st_EndOfDay         0x20              ././key.o
pgsSC_STAT          0x4               ../../sdk/Bitel_Bitel.a(emv_APDU.o)
usRS23210MSTimer    0x2               ././rs232.o
sz5LCDDisplayProgramVersion
                    0x5               ././main.o
iTxSize             0x4               ././modem.o
st_ReversalTrxnReqData
                    0xc08             ././apppos.o
SvcCode             0x3               ././scard.o
gbATRdata           0x28              ../../sdk/Bitel_Bitel.a(emv_APDU.o)
hal_timer_vsr_count
                    0x4               ../../sdk/Bitel_Bitel.a(hal_timer.o)
BitelucTempSec      0x1               ../../sdk/Bitel_Bitel.a(libc.o)
sTMSDownlaodClusterNoPerSector
                    0x2               ././tmsdown.o
ucHtmlHeader        0x800             ././gsm.o
dDebitBuyAmount     0x8               ././apppos.o
stParams            0x800             ././flash.o
stAppList           0x3c00            ././flash.o
Printer_Array       0x4               ../../sdk/Bitel_Bitel.a(libc.o)
pgsTrmISR           0x4               ../../sdk/Bitel_Bitel.a(EMV_APP.o)
ulBackupPCode       0x4               ././apppos.o
pgbTrmRevocList     0x4               ../../sdk/Bitel_Bitel.a(EMV_CAT.o)
sz17TMSSWVersion    0x11              ././main.o
TrmMCC              0x2               ././scard.o
ucTxTempBuf         0x2000            ././modem.o
stMasterKey         0x200             ././flash.o
gsEmvCA_PK          0x204             ../../sdk/Bitel_Bitel.a(EMV_CAT.o)
stHotCard           0xa000            ././flash.o
PEDR_BUFFER         0x100             ../../sdk/Bitel_Bitel.a(ppdrv.o)
CardHolderName      0x11              ././scard.o
valuekey            0x4               ../../sdk/Bitel_Bitel.a(libc.o)
sz105Track3Data     0x69              ././msr.o
streamx             0x3e8             ../../sdk/Bitel_Bitel.a(libEncryption.o)
gsSC_STAT           0x7               ../../sdk/Bitel_Bitel.a(emv_APDU.o)
gsTrmRsaKey         0x4b0             ../../sdk/Bitel_Bitel.a(EMV_CAT.o)
dCreditBuyAmout     0x8               ././apppos.o
st_POSSetupInfo     0x2000            ././flash.o
giRequestType       0x4               ././gsm.o
sz17TrxnTitle       0x11              ././key.o
sz6BIOSVersion      0x6               ././main.o
ucGprsMaxConnectCnt
                    0x1               ././gsm.o
ucGprsRssiValue     0x1               ././gsm.o
Page_Array          0x5               ../../sdk/Bitel_Bitel.a(libc.o)
sSelectedMenuItemNo
                    0x2               ././utils.o
usPrint10MSTimer    0x2               ././printer.o
iModelName          0x4               ././main.o
lGprsTest1SecCheckTimer
                    0x4               ././gsm.o
gHEAP               0x107ac0          ../../sdk/Bitel_Bitel.a(libc.o)
lCallHome1SECTimer  0x4               ././key.o
st_TrxnLogDB        0x1f40            ././apppos.o
ucLangFlag          0x1               ././main.o
SCS_ModeAUX         0x1               ../../sdk/Bitel_Bitel.a(BITEL_TL.o)
ucLCDBacklightOnFlag
                    0x1               ././rtc.o
ucPRTDensity        0x1               ././printer.o
TrmForceOnLine      0x1               ././scard.o
pgbTrmExcepList     0x4               ../../sdk/Bitel_Bitel.a(EMV_CAT.o)
ulSCS_BaudRate      0x4               ../../sdk/Bitel_Bitel.a(BITEL_TL.o)
usTMSDownload10MSTimer
                    0x2               ././tmsdown.o
gem_RS232open       0x1               ../../sdk/Bitel_Bitel.a(emv_APDU.o)
ucTMSDownloadFlag   0x1               ././tmsdown.o
buf                 0x86              ../../sdk/Bitel_Bitel.a(FRMWRI.o)
sz17ProgramVersion  0x11              ././main.o
ucMSRTrack          0x1               ././msr.o
gbDestBuf           0x200             ../../sdk/Bitel_Bitel.a(emv_APDU.o)
gbTempBuf           0x200             ../../sdk/Bitel_Bitel.a(emv_APDU.o)
gsSHSconText        0x60              ../../sdk/Bitel_Bitel.a(CryptoLib.o)
GraphicBuf          0x400             ././sfontlib.o
TrmL2TTAmode        0x1               ././scard.o
pgsTrmACAP          0x4               ../../sdk/Bitel_Bitel.a(EMV_APP.o)
pstfTempTrxnLog     0x4               ././apppos.o
first_init          0x4               ../../sdk/Bitel_Bitel.a(sc_at83c26.o)
ucSCS_RS232Open     0x1               ../../sdk/Bitel_Bitel.a(BITEL_TL.o)
E                   0x4               ../../sdk/Bitel_Bitel.a(shsc.o)
dRefundAmout        0x8               ././apppos.o
sz12PhoneNo         0xc               ././apppos.o
tPlainText          0x80              ../../sdk/Bitel_Bitel.a(CryptoLib.o)
gbPinBlock          0x8               ././scard.o
TrmCipherText       0x100             ../../sdk/Bitel_Bitel.a(CryptoLib.o)
ucMultiMerchantSelectedNo
                    0x1               ././apppos.o
FlashWriteBuf       0x20000           ././flash.o
atmel_sc_voltage    0x18              ../../sdk/Bitel_Bitel.a(sc_at83c26.o)
ucPrintReceiptNo    0x1               ././printer.o
st_TrxnLog          0x3c8             ././apppos.o
sz19PaymentID       0x13              ././apppos.o
PEDT_COUNT          0x4               ../../sdk/Bitel_Bitel.a(ppdrv.o)
pinWait             0x4               ../../sdk/Bitel_Bitel.a(ppdrv.o)
ApplicableValues    0x1               ../../sdk/Bitel_Bitel.a(emv_power_up.o)
giPinTryCnt         0x4               ././scard.o
RAM_hal_flash_init  0x4               ../../sdk/Bitel_Bitel.a(hal_flash.o)
gbSMID              0x1               ../../sdk/Bitel_Bitel.a(ppdrv.o)
ucTempMin           0x1               ././rtc.o
gbSignBuf           0x200             ../../sdk/Bitel_Bitel.a(emv_APDU.o)
ucGprsPowerOnStatus
                    0x1               ././gsm.o
ucGprsNetworkConnectionStatus
                    0x1               ././gsm.o
ucCurrencyExp       0x1               ././main.o
usPrintStep         0x2               ././printer.o
ucPINInputAndReconnectFlag
                    0x1               ././apppos.o
ucPrintPrePrintingAreaFlag
                    0x1               ././printer.o
pstFuncList         0x4               ././flash.o
pgsIccAIP           0x4               ../../sdk/Bitel_Bitel.a(EMV_APP.o)
sz17ActiveTrxnMenuMsg
                    0x99              ././apppos.o
first_emv_init      0x4               ../../sdk/Bitel_Bitel.a(emv_init.o)
cYPos               0x1               ././key.o
usGprsTaskStep      0x2               ././gsm.o
enqcnt              0x1               ../../sdk/Bitel_Bitel.a(libc.o)
pstMasterKey        0x4               ././flash.o
SvrCipherText       0x100             ../../sdk/Bitel_Bitel.a(CryptoLib.o)
ucGprsConnectCnt    0x1               ././gsm.o
ucReversalRetryCnt  0x1               ././apppos.o
iTMSDownInfoBlockIndex
                    0x4               ././tmsdown.o
pstfFirstTrxnLog    0x4               ././apppos.o
lGprsTest1SecStartTimer
                    0x4               ././gsm.o
SMSRxStream         0x800             ../../sdk/Bitel_Bitel.a(libc.o)
giTLVBufLen         0x4               ././htmlutil.o
RS232Stream         0x800             ../../sdk/Bitel_Bitel.a(lebRS232.o)
Start_Print         0x4               ../../sdk/Bitel_Bitel.a(libc.o)
PinData             0x1a4             ../../sdk/Bitel_Bitel.a(ppdrv.o)
PEDT_MPOINT         0x4               ../../sdk/Bitel_Bitel.a(ppdrv.o)
SMS_RX_ptr          0x4               ../../sdk/Bitel_Bitel.a(libc.o)
cstsfg              0x4               ../../sdk/Bitel_Bitel.a(libc.o)
ulPCode             0x4               ././apppos.o
CardAcceptorTerminalID
                    0x8               ././scard.o
gbTmpRespBuf        0x2000            ././gsm.o
pgbTLVBuf           0x4               ././htmlutil.o
stpFlashPOSSetupInfo
                    0x4               ././flash.o
usAutoInitial10MSTimer
                    0x2               ././key.o
BitelucDateTimeRefreshFlag
                    0x1               ../../sdk/Bitel_Bitel.a(libc.o)
GemMode             0x1               ../../sdk/Bitel_Bitel.a(gem_TL.o)
pstParams           0x4               ././flash.o
Master_Array        0x5               ../../sdk/Bitel_Bitel.a(libc.o)
ucGprsSIMCheckedFlag
                    0x1               ././gsm.o
giRespContentLength
                    0x4               ././gsm.o
giTrmISR            0x4               ../../sdk/Bitel_Bitel.a(EMV_APP.o)
PUBLIC_KEY1         0x204             ../../sdk/Bitel_Bitel.a(CryptoLib.o)
ucReversalRetryTimePerCnt
                    0x1               ././apppos.o
usTrxnTotalCount    0x2               ././apppos.o
CSQflag             0x4               ../../sdk/Bitel_Bitel.a(libc.o)
sz17TRMModelName    0x11              ././main.o
iRS232RxSize        0x4               ././rs232.o
VolumnMax           0x4               ../../sdk/Bitel_Bitel.a(libc.o)
iModemTestOKCnt     0x4               ././hwtest.o
tagData             0x200             ././htmlutil.o
psz17FirstMenuItemMsgAddr
                    0x4               ././utils.o
gsIssuerPK          0x204             ../../sdk/Bitel_Bitel.a(EMV_CAT.o)
hal_sys_pool_top    0x4               ../../sdk/Bitel_Bitel.a(hal_sys_alloc.o)
F121aL3_sz1003BillPaymentData2
                    0x3eb             ././apppos.o
gbTmpKeyBuf         0x14              ././scard.o
BitelRealTime       0x8               ../../sdk/Bitel_Bitel.a(libc.o)
SCS_SlotNo          0x4               ../../sdk/Bitel_Bitel.a(BITEL_TL.o)
ucRxTempBuf         0x2000            ././modem.o
usResponseCode      0x2               ././apppos.o
BitelusLCDBackLightOn10MSTimer
                    0x2               ../../sdk/Bitel_Bitel.a(libc.o)
iTrmModelNo         0x4               ../../sdk/Bitel_Bitel.a(CryptoLib.o)
GemModeAUX          0x1               ../../sdk/Bitel_Bitel.a(gem_TL.o)
BiteliModelName     0x4               ../../sdk/Bitel_Bitel.a(libc.o)
ucGsmNetworkRegistrationMode
                    0x1               ././gsm.o
usGprs10MSTimer     0x2               ././gsm.o
stEftParams         0x400             ././flash.o
iFlashMemorySize    0x4               ././flash.o

Memory Configuration

Name             Origin             Length             Attributes
flash            0x0000000040000000 0x0000000000800000 xrw
sram             0x0000000050000000 0x0000000000200000 xrw
*default*        0x0000000000000000 0xffffffffffffffff

Linker script and memory map


.com.vect.r     0x0000000040000000      0x614
 *(.cstartup)
 .cstartup      0x0000000040000000      0x614 ./../../Object/cstartup.o
                0x0000000040000574                SEARCH_REFTABLE
                0x0000000040000000                int_vector
                0x0000000040000240                ASMSTART

.usr.text       0x0000000040000618    0xcda34
                0x0000000040000618                _stext = .
                0x0000000040000618                _ftext = .
 *(.lib.prog)
 .lib.prog      0x0000000040000618     0x7844 ../../sdk/Bitel_Bitel.a(asmutil.o)
                0x0000000040006378                CheckCrc16
                0x0000000040002250                ICON_CLOCK_DISPLAY
                0x00000000400006c8                CHECK_RFCTS
                0x0000000040006e24                BT_flash_write
                0x0000000040005690                FIND_APP
                0x000000004000450c                WRCOM0
                0x0000000040004b68                EDITINS
                0x00000000400006d4                DTR_HIGH
                0x00000000400014cc                DISPLAY_BCLEAR
                0x000000004000361c                PINPAD_SEL
                0x00000000400009c8                ONLINE_READ
                0x000000004000285c                ADV_DISPLAY
                0x0000000040003654                SET_SERIAL_COMBO
                0x00000000400060a4                InitCrc16A
                0x0000000040000a50                SET_BUFFER_SIZE_8K
                0x0000000040007648                RAM_Program_Init
                0x0000000040004894                READ_COM1
                0x0000000040000784                RS232BAUD
                0x0000000040000dd4                SET_VERSION_NUMBER
                0x000000004000198c                STR_DISPLAY
                0x0000000040000768                MODEM_PARITY
                0x00000000400022ac                CHECK_LCD_TYPE
                0x0000000040002944                USE_PRTFONT
                0x0000000040000f48                L4_SUB
                0x000000004000231c                GRA_LOAD
                0x0000000040005e2c                CheckProgCrc16
                0x0000000040001300                DSPFHAN
                0x0000000040003634                RFCARD_SEL
                0x00000000400036f0                UARTRXCOUNT
                0x0000000040004bd0                EDIT_CURSOR_INC
                0x000000004000073c                COM3RXCOUNT
                0x0000000040004c90                EDIT_CURSOR_DEC
                0x0000000040005954                SYNC_MODE
                0x0000000040004098                WRCOM3
                0x0000000040004eec                EDIT_INIT
                0x0000000040004dcc                EDIT_DISPLAY
                0x0000000040000e10                BUZZOFF
                0x0000000040002e44                DISPOS
                0x0000000040003684                SC_RESET
                0x0000000040002dbc                LCDCNOR
                0x0000000040004dc4                GET_SP
                0x000000004000138c                DSPFENG
                0x0000000040002ce0                BINVERT
                0x0000000040007b34                GET_X_Y_Z
                0x00000000400006e4                COM1RXCOUNT
                0x00000000400015c4                LCD_CLEAR
                0x0000000040003f8c                GEMRXCOUNT
                0x0000000040000ad4                KEYSCAN
                0x000000004000230c                GRAMOVE_OFF
                0x0000000040000a04                MAKEONLINE
                0x0000000040000798                READ_RS232_STATUS
                0x0000000040000874                COM1_POINT_INIT
                0x000000004000675c                flash_memcmp
                0x00000000400008e4                COM3_POINT_INIT
                0x00000000400068c8                BT_flash_init
                0x0000000040000618                SLE_OPEN
                0x0000000040006a40                BT_flash_shutdown
                0x0000000040001fac                ICONCSS
                0x00000000400036bc                UART_FLOW_CONTROL_MODE
                0x00000000400058bc                ENTER_REBOOT
                0x000000004000367c                ASYNC_SEL
                0x000000004000362c                SCARD_SEL
                0x00000000400036f8                READ_UART
                0x00000000400029d4                USE_PRTFONT_2B
                0x0000000040004d54                SAVE_CURSORE
                0x0000000040000710                COM2RXCOUNT
                0x00000000400022e4                GRAMOVE_ON
                0x00000000400048bc                RDCOM0
                0x0000000040002514                _GRA_SCROLL
                0x0000000040003664                CONNECT_PC_TO_PINPAD
                0x000000004000368c                _COMM_RESET
                0x0000000040005934                MODEM_START
                0x0000000040004650                WRITE_COM0
                0x00000000400038e0                WRGEM
                0x000000004000220c                CLEAR_ICON_CLOCK
                0x00000000400026f8                ASC2HEX
                0x0000000040002f78                LCDBOX_OFF
                0x0000000040000fdc                LCDDISP
                0x0000000040003fc0                BDeltaMS
                0x000000004000593c                MODEM_STOP
                0x0000000040000a48                LEDOFFS
                0x0000000040003600                MODEM_SEL
                0x0000000040003824                GEMRXGET
                0x0000000040005964                MODEM_SERVICE
                0x0000000040004688                RDCOM3
                0x0000000040003710                UART_ENABLE
                0x00000000400035f8                RS232_SEL
                0x0000000040000774                UART_SETUP
                0x0000000040001c48                SEGLD
                0x0000000040002a1c                LCDCURD
                0x00000000400036d8                UART_ENABLE_ASM
                0x0000000040002780                HEX2ASC
                0x000000004000083c                COM0_POINT_INIT
                0x00000000400036ac                RTS_SET
                0x00000000400041dc                WRITE_COM3
                0x0000000040000a20                MAKEOFFLINE
                0x0000000040001864                LCD_DISPLAY
                0x0000000040000ec4                STR_SUB
                0x0000000040005adc                INFO_DISPLAY
                0x00000000400006dc                DTR_LOW
                0x000000004000091c                UART_POINT_INIT
                0x000000004000381c                GEMTX_ENABLE
                0x0000000040004214                WRCOM2
                0x00000000400007d4                PIN_TX_ENABLE
                0x0000000040006b48                BT_flash_erase
                0x0000000040001a88                FONT_LOAD
                0x0000000040006eb4                BT_flash_unprotect
                0x000000004000363c                AUX_SEL
                0x0000000040002fcc                LCDBLK_OFF
                0x0000000040003fb8                RDGEM
                0x00000000400008ac                COM2_POINT_INIT
                0x0000000040002c74                BINVERT_COM
                0x0000000040003700                WRITE_UART
                0x0000000040002ec0                GETDPOS
                0x0000000040001c84                ICON_DISPLAY
                0x0000000040007bb8                GET_PROD_ID
                0x0000000040000e68                GET_CURSORP
                0x0000000040005944                MODEM_BLIND
                0x0000000040000808                PIN_DISABLE
                0x000000004000366c                DISCONNECT_PC_TO_PINPAD
                0x0000000040003778                GEMRXPOINT_INIT
                0x00000000400044d4                WRITE_COM1
                0x0000000040003674                SYNC_SEL
                0x0000000040004800                RDCOM1
                0x0000000040000a40                LEDONS
                0x00000000400007a0                PIN_RX_ENABLE
                0x0000000040005624                BIOS_WRITE
                0x0000000040005c38                nmi_display_routine
                0x00000000400009c0                HEAD_CENTER
                0x0000000040003610                SELCOM
                0x0000000040001770                CHAR_DISPLAY
                0x000000004000298c                USE_LCDFONT_2B
                0x000000004000369c                DTR_SET
                0x0000000040004e24                NUMENG_DISPLAY
                0x0000000040007cbc                SAVE_PROD_ID
                0x00000000400014a8                ALLDISP
                0x0000000040005970                LCDprintf
                0x00000000400057d0                FINDEXIST_STRING
                0x0000000040000df8                SET_PRINTER_CURRENT_LIMIT
                0x0000000040005634                ERASE_BOOT
                0x0000000040004744                RDCOM2
                0x000000004000471c                READ_COM3
                0x0000000040003624                SERIAL2_SEL
                0x0000000040000e40                LCD_ON
                0x0000000040006604                DELETE_APPLICATION
                0x0000000040001704                DISPLAY_LINE
                0x0000000040004950                READ_COM0
                0x0000000040003194                LCDBOX_DISPLAY
                0x00000000400026bc                ASC2HES
                0x00000000400047d8                READ_COM2
                0x0000000040005164                TEXT_EDIT
                0x00000000400066d4                flash_memcpy
                0x0000000040000954                PIN_ENTRY_PROCESS
                0x0000000040005618                SAVE_BOOT
                0x0000000040000de0                SAVE_PRINT_KEY
                0x000000004000592c                SYSTEM_DOWNLOAD
                0x0000000040004358                WRITE_COM2
                0x0000000040004390                WRCOM1
                0x0000000040005730                FINDAPP_STRING
                0x000000004000300c                LCDBLK_ON
                0x00000000400034d8                LCD_BLINKING
                0x0000000040003644                SET_SERIAL_OUTPUT
                0x00000000400028fc                USE_LCDFONT
                0x0000000040006a5c                BT_flash_get_info
                0x0000000040004d9c                SAVE_SPACE
                0x0000000040003798                BCD2ASC
                0x0000000040004978                LCDBLKOFF
                0x0000000040003608                HI_SEL
                0x0000000040002040                ICONCKM
                0x0000000040000a64                KBUFFER_SAVE
                0x0000000040003728                GEMRXPOINT_RESET
                0x0000000040002ef4                GET_DISP_POSITION
                0x00000000400058ac                WEARCHAPP
                0x00000000400049b0                LCDBLKON
                0x0000000040007944                XXX_YYY_ZZZ
                0x00000000400017b8                CHAR_DISPLAYC
                0x0000000040003694                RESET_UART
                0x0000000040006460                GET_APPLICATION_NAME
 .lib.prog      0x0000000040007e5c     0xdfe8 ../../sdk/Bitel_Bitel.a(btutils.o)
                0x00000000400152f4                GET_1M_TIMER
                0x00000000400097cc                GRADATALOAD240OFFSET
                0x000000004000f6f8                CARD_DISABLE
                0x000000004001590c                LCDCONT_SEXIST
                0x0000000040015418                CL_RESET
                0x00000000400139c0                SENSOR_CAUSE1
                0x00000000400091b8                icorpld
                0x0000000040011334                RTC_CLK_WRITE
                0x0000000040009388                MMAKEDLD
                0x00000000400131fc                READ_POWER_SAVING_STATUS
                0x0000000040013af8                CHK_VERNUM
                0x0000000040015118                TASK_STOP
                0x00000000400089f8                LCDON
                0x00000000400158bc                CHECK_CL_INT
                0x0000000040012c24                NMI_VSR
                0x0000000040009220                PAGELD
                0x0000000040012f28                SENSOR_SET_CONFIG
                0x0000000040012398                SELECT_APPLICATION
                0x0000000040009a40                GRAPOSITION240
                0x000000004000ef10                INIT_CR
                0x00000000400091e4                CORPLD
                0x0000000040012ad8                GET_TRUE_RANDOM_NUMBER
                0x00000000400115f8                FLASH_RAM_PROGRAM
                0x0000000040015aec                UART23_POWERON
                0x000000004001314c                SET_TX_TIME_INTERVAL
                0x0000000040013c78                GET_FONTDATA
                0x00000000400090dc                COLUMND
                0x00000000400126c0                FLASH_SECTOR_ERASE
                0x0000000040013950                SENSOR_CAUSE
                0x0000000040015560                ReadRawRC
                0x0000000040014e24                POWER_KEY_INHIBIT
                0x000000004001564c                SET_SPI_CONFIG
                0x000000004000f9d4                LCD_RESET
                0x0000000040012a88                BACK_OFF
                0x0000000040008aa0                LCDEXTRA_AREA
                0x000000004000fb08                KEYS_TYPE
                0x0000000040012430                SAVE_BOOT_APPLICATION
                0x0000000040009528                GRADATA_LOAD
                0x0000000040008bec                RS232_SETUP
                0x0000000040011b00                FLASH_RAM_PROGRAM32
                0x0000000040008310                INITLCD
                0x000000004001598c                LED_DISPLAY
                0x000000004001573c                CL_CARD_ENABLE
                0x0000000040008dc0                PAPER_READ
                0x000000004001529c                SET_TASK_STACK_SIZE
                0x0000000040012e4c                FOR_PROMPT
                0x0000000040015d40                SLE_POWERUP
                0x0000000040015d08                UART3_RESETOUT
                0x000000004001547c                WriteRawRC
                0x0000000040009358                MAKEDLD
                0x000000004000fae4                ENTER_RESET
                0x0000000040013bac                GET_HWDATA
                0x0000000040015890                SET_CONTACTLESS_INTERFACE
                0x000000004000ea5c                KEYDECODER
                0x0000000040013540                POWER_ICON_DISPLAY
                0x0000000040012018                WRITE_APP_PROGRAM
                0x0000000040015360                SET_MULTITASKING_USAGE
                0x0000000040015308                SET_TASK_PRIORITY_MODE
                0x0000000040008da0                RS232_DATA_READ
                0x0000000040009654                GRA64LD
                0x0000000040008c28                RS232_ENABLE
                0x0000000040009320                MAKEDI0
                0x00000000400142a0                VARINIT
                0x0000000040008c64                RS232_TX_STATUS
                0x00000000400132ac                CONTROL_POWER_SAVING_STATUS
                0x0000000040013a40                SIM_SELECT
                0x00000000400145d0                UART1_POWERDOWN
                0x00000000400146d4                FOMA_ONOFF
                0x0000000040012dd0                DLY10MS
                0x00000000400157fc                CL_CARD_DISABLE
                0x0000000040014558                RS232_POWERON
                0x000000004000f838                MODEM_RESET
                0x00000000400128a4                BEEP_TONE
                0x000000004000e9b8                GET_KEYDATA
                0x000000004000f95c                WIFI_POWER_OFF
                0x000000004000fa5c                SCC_RESET
                0x000000004001519c                SET_TASK_CHANGE_TIME
                0x0000000040009810                GRADATALOAD240
                0x0000000040014610                MEMSIM
                0x0000000040014ea8                TASK_START
                0x0000000040014da8                POWER_OFF
                0x0000000040013cc8                PRINTER_OFF
                0x0000000040008a2c                LCDOFF
                0x000000004000f8d0                WIFI_POWER_ON
                0x0000000040012a0c                BACK_ON
                0x00000000400127dc                USIP_REG_READ
                0x0000000040013e10                SYSINIT
                0x0000000040015b78                UART2_RESETOUT
                0x0000000040009b48                FNTLD
                0x000000004000933c                MAKEDI1
                0x0000000040010fa8                RTC_CLK_READ
                0x00000000400124b8                FLASH_WRITE
                0x000000004000f5c4                CARD_ENABLE
                0x000000004000809c                INIT_SYSTEM
                0x0000000040012ac8                BACK_ONOFF
                0x000000004000fb60                CARD_READ
                0x000000004000f794                TRACK_SETUP
                0x0000000040014594                UART1_POWERON
                0x000000004001493c                ENTER_STANDBY
                0x0000000040013088                DELAY_US
                0x0000000040012ba0                ENTER_AFTER_KEYLOAD
                0x0000000040008d80                RS232_RX_COUNT_DEC
                0x0000000040012840                USIP_REG_WRITE
                0x00000000400120e8                FIND_APPLICATION
                0x0000000040007e5c                utils_function
                0x0000000040008f58                LCD_CONT
 .lib.prog      0x0000000040015e44     0x29fc ../../sdk/Bitel_Bitel.a(prtutil.o)
                0x0000000040015ee4                ENABLE_PRINTER_PROTECTION
                0x0000000040015e70                SET_FORMFEED
                0x0000000040015e54                SEEK_NO_PAPER
                0x0000000040016950                GET_CHAR_ADDRESS
                0x0000000040016a1c                PcopyToDotNormalE
                0x00000000400164fc                PRINTER_WORKING
                0x0000000040016784                HEAD_SEEK
                0x0000000040015ef4                DISABLE_PRINTER_PROTECTION
                0x00000000400160d4                PRINTING_SUB
                0x0000000040015fb8                SET_PRINTING_PREFERENCE
                0x0000000040017a04                LINE_PRINT
                0x0000000040015f08                PRINT_FROM_FIRST
                0x00000000400161ac                PRINTING_SVC
                0x00000000400167fc                NOPRT_CHK
                0x0000000040015ea4                SET_LINESPACE
                0x0000000040015e44                BLINKING_OFF
                0x00000000400169a8                GET_PRT_CHINA
                0x0000000040016060                EBUFFER_SAVE
                0x00000000400163f0                UNDER_PAGE_CHECK
                0x000000004001746c                PcopyToDotDoubleH
                0x0000000040016bf8                PcopyToDotDoubleE
                0x00000000400167b0                PAPER_SEEK
                0x0000000040016044                AFTERERROR
                0x0000000040015ff4                ASSIGN_GRAPHICS
                0x00000000400167dc                USE_DWFONT
                0x0000000040015e4c                SET_PAPER_FEED
                0x0000000040017154                PcopyToDotNormalH
                0x0000000040015ecc                SET_PRINT_MODE
 *(.lib.text)
 .lib.text      0x0000000040018840      0x79c ../../sdk/Bitel_Bitel.a(asmutil.o)
                0x0000000040018e84                REF_STRING
                0x0000000040018a18                CODEZ8
                0x0000000040018c44                NDISPPT
                0x0000000040018da4                INFO_DISPMSG
                0x0000000040018ab4                ASCIIT2
                0x0000000040018e2c                NMI_DISPMSG
                0x0000000040018e88                REF_STRS
                0x0000000040018ae4                EXIST_STRING
                0x0000000040018a14                CODEZ2
                0x0000000040018adc                APP_STRING
                0x0000000040018e70                BITEL_VERMSG
                0x0000000040018c68                NDISPPT240
                0x0000000040018d44                POWER240_ICON
                0x0000000040018a38                CODE72
                0x00000000400188a8                LINEOFT
                0x0000000040018994                TONE_TIME
                0x0000000040018a48                RAMENDADDR
                0x0000000040018a28                CODE62
                0x0000000040018af4                FLYTEXT
                0x00000000400189d4                TONE_DATA
                0x0000000040018a84                NUMBERT
                0x0000000040018c84                BATTERY240_ICON
                0x0000000040018a30                CODE11
                0x0000000040018a90                ASCIIT
                0x0000000040018bb4                ICONCLKD
                0x0000000040018ae0                BOOT_STRING
                0x0000000040018a80                RAMKEEPDATA
                0x0000000040018840                MEMSZIELIMIT_TABLE
                0x0000000040018c7c                NDISPPG240
                0x0000000040018858                ODDTBL
                0x0000000040018c34                BCD2ASC_TABLE
                0x0000000040018868                T1ODDTBL
                0x0000000040018fd0                STR_BTPRODID
                0x0000000040018b14                ICONDATA
                0x0000000040018a20                CODEZ62
                0x00000000400188cc                TONE_FREQ
                0x0000000040018a1c                CODE08
                0x00000000400188c8                RTCAMPM
                0x0000000040018a68                ROMMAXSIZE
                0x0000000040018a40                CODEZ1
                0x0000000040018a58                RAMSPADDR
                0x00000000400188b8                RTCWTBL
                0x0000000040018bac                ICONCLKP
                0x00000000400188ac                BATTERYLEVEL
                0x00000000400188b0                CLKVTBL
                0x0000000040018ad8                ONFLY_STRING
 .lib.text      0x0000000040018fdc      0x618 ../../sdk/Bitel_Bitel.a(prtutil.o)
                0x0000000040019270                TEMP_TBL
                0x00000000400190f8                INTTIMES_TBL
                0x00000000400195d8                LFSTEP
                0x0000000040019540                GRASTB_TBL
                0x0000000040019594                PRTPREF_TBL
                0x0000000040019300                STBCNT_TBL
                0x000000004001958c                STBSIG4_TBLN
                0x0000000040019580                STBSIG1_TBLN
                0x00000000400195e0                CHAR_TABLE
                0x00000000400190dc                INTTIME_TBL
                0x0000000040019400                GRADENS_TBL
                0x00000000400195b4                GRASPOS_TBL
                0x00000000400191a8                INTTIMEL_TBL
                0x0000000040018fdc                DOT2BIT
                0x0000000040019500                GRAOFFS_TBL
                0x0000000040019258                INTTIME_ACC
                0x0000000040019588                STBSIG3_TBLN
                0x0000000040019584                STBSIG2_TBLN
 .lib.text      0x00000000400195f4     0x3000 ../../sdk/Bitel_Bitel.a(prtfont.o)
                0x00000000400195f4                PRTFENG
 hal*(.text .rodata*)
 .text          0x000000004001c5f4     0x1264 ../../sdk/Bitel_Bitel.a(hal_apm.o)
                0x000000004001cb44                hal_apm_set_cpu_mode_idle
                0x000000004001c7a4                hal_apm_get_clock_frequency
                0x000000004001d4f0                hal_apm_isr
                0x000000004001d1cc                hal_apm_ioctl
                0x000000004001c5f4                hal_apm_init
                0x000000004001cfc0                hal_apm_set_device_mode
                0x000000004001ca9c                hal_apm_set_cpu_mode_normal
                0x000000004001c854                hal_apm_set_cpu_mode_ultra_low_power
                0x000000004001cd88                hal_apm_reset_device
                0x000000004001cc4c                hal_apm_get_cpu_mode
                0x000000004001c6a0                hal_apm_shutdown
                0x000000004001d0e8                hal_apm_get_device_mode
                0x000000004001d2e0                hal_apm_attach
                0x000000004001d3fc                hal_apm_detach
                0x000000004001c6b4                hal_apm_set_clock_frequency
                0x000000004001d600                hal_apm_ack_cpu_mode_ultra_low_power
 .rodata        0x000000004001d858       0x14 ../../sdk/Bitel_Bitel.a(hal_apm.o)
 .text          0x000000004001d86c      0x2a0 ../../sdk/Bitel_Bitel.a(hal_apm_clock.o)
                0x000000004001d8f0                hal_apm_soft_change_clock_frequency
                0x000000004001d86c                hal_apm_change_clock_frequency
 .text          0x000000004001db0c      0xdf0 ../../sdk/Bitel_Bitel.a(hal_flash.o)
                0x000000004001de20                hal_flash_shutdown
                0x000000004001e1d0                hal_flash_write
                0x000000004001df28                hal_flash_erase
                0x000000004001de3c                hal_flash_get_info
                0x000000004001dd00                hal_flash_init
                0x000000004001e260                hal_flash_unprotect
 .rodata        0x000000004001e8fc      0x140 ../../sdk/Bitel_Bitel.a(hal_flash.o)
 .text          0x000000004001ea3c      0x314 ../../sdk/Bitel_Bitel.a(hal_intr.o)
                0x000000004001ebb0                hal_interrupt_get_isr
                0x000000004001ea3c                hal_interrupt_set_config
                0x000000004001eaf0                hal_interrupt_decode
                0x000000004001ecd0                hal_interrupt_detach
                0x000000004001ec2c                hal_interrupt_attach
 .rodata        0x000000004001ed50       0x5c ../../sdk/Bitel_Bitel.a(hal_intr.o)
 .text          0x000000004001edac       0x44 ../../sdk/Bitel_Bitel.a(hal_intr_mask.o)
                0x000000004001edac                hal_interrupt_mask
                0x000000004001edd0                hal_interrupt_unmask
 .text          0x000000004001edf0      0x268 ../../sdk/Bitel_Bitel.a(hal_libc.o)
                0x000000004001efd0                hal_memcpy
                0x000000004001edf0                hal_memcmp
                0x000000004001ef5c                hal_memset
 .text          0x000000004001f058      0x134 ../../sdk/Bitel_Bitel.a(hal_scs_attach.o)
                0x000000004001f058                hal_scs_attach
 .text          0x000000004001f18c      0x164 ../../sdk/Bitel_Bitel.a(hal_scs_cancel.o)
                0x000000004001f18c                hal_scs_cancel
 .text          0x000000004001f2f0      0xa54 ../../sdk/Bitel_Bitel.a(hal_scs_dev.o)
                0x000000004001f5c4                hal_scs_dev_cancel_transfer
                0x000000004001f538                hal_scs_dev_receive_data
                0x000000004001f8ec                hal_scs_dev_set_conv
                0x000000004001f2f0                hal_scs_dev_send_data
                0x000000004001f33c                hal_scs_dev_send_data_T1
                0x000000004001f578                hal_scs_dev_receive_data_T1
                0x000000004001fad8                SCIB_SET_BIT
                0x000000004001f860                hal_scs_dev_gt_load
                0x000000004001f964                hal_scs_dev_read_reg
                0x000000004001fc08                SCIB_CLR_BIT
                0x000000004001f774                hal_scs_dev_wt_load
                0x000000004001fa24                hal_scs_dev_write_reg
                0x000000004001f6e8                hal_scs_dev_etu_load
 .text          0x000000004001fd44       0xdc ../../sdk/Bitel_Bitel.a(hal_scs_get_last_error.o)
                0x000000004001fd44                hal_scs_get_last_error
 .text          0x000000004001fe20      0x108 ../../sdk/Bitel_Bitel.a(hal_scs_get_slot_info.o)
                0x000000004001fe20                hal_scs_get_slot_info
 .text          0x000000004001ff28      0x308 ../../sdk/Bitel_Bitel.a(hal_scs_get_status.o)
                0x000000004001ff28                hal_scs_get_status
 .text          0x0000000040020230      0x560 ../../sdk/Bitel_Bitel.a(hal_scs_init.o)
                0x0000000040020230                hal_scs_init
 .text          0x0000000040020790      0x6d8 ../../sdk/Bitel_Bitel.a(hal_scs_ioctl.o)
                0x0000000040020790                hal_scs_ioctl
 .rodata        0x0000000040020e68       0x68 ../../sdk/Bitel_Bitel.a(hal_scs_ioctl.o)
 .text          0x0000000040020ed0      0x88c ../../sdk/Bitel_Bitel.a(hal_scs_isr.o)
                0x0000000040021568                hal_scs_isr2
                0x0000000040021374                hal_scs_isr1
                0x0000000040020ed0                hal_scs_isr
                0x0000000040021178                hal_scs_isr0
 .text          0x000000004002175c      0x1e0 ../../sdk/Bitel_Bitel.a(hal_scs_power_down.o)
                0x000000004002175c                hal_scs_power_down
 .text          0x000000004002193c      0x71c ../../sdk/Bitel_Bitel.a(hal_scs_power_up.o)
                0x000000004002193c                hal_scs_power_up
 .text          0x0000000040022058      0x468 ../../sdk/Bitel_Bitel.a(hal_scs_pps_exchange.o)
                0x0000000040022058                hal_scs_pps_exchange
 .text          0x00000000400224c0      0x21c ../../sdk/Bitel_Bitel.a(hal_scs_set_config.o)
                0x00000000400224c0                hal_scs_set_config
 .text          0x00000000400226dc      0x1d4 ../../sdk/Bitel_Bitel.a(hal_scs_set_slot_info.o)
                0x00000000400226dc                hal_scs_set_slot_info
 .text          0x00000000400228b0      0x594 ../../sdk/Bitel_Bitel.a(hal_scs_t1_block.o)
                0x00000000400228b0                hal_scs_t1_block
 .text          0x0000000040022e44      0xa70 ../../sdk/Bitel_Bitel.a(hal_scs_vsr_power_up.o)
                0x00000000400236bc                hal_scs_atr_get_TCK
                0x000000004002380c                hal_scs_atr_get_interface_byte_num
                0x000000004002378c                hal_scs_atr_check_TDx
                0x0000000040022e44                hal_scs_vsr_power_up
 .rodata        0x00000000400238b4       0x18 ../../sdk/Bitel_Bitel.a(hal_scs_vsr_power_up.o)
 .text          0x00000000400238cc      0x550 ../../sdk/Bitel_Bitel.a(hal_scs_vsr_pps_exchange.o)
                0x00000000400238cc                hal_scs_vsr_pps_exchange
 .rodata        0x0000000040023e1c       0x14 ../../sdk/Bitel_Bitel.a(hal_scs_vsr_pps_exchange.o)
 .text          0x0000000040023e30      0x5f8 ../../sdk/Bitel_Bitel.a(hal_scs_vsr_t1_block.o)
                0x0000000040023e30                hal_scs_vsr_t1_block
 .rodata        0x0000000040024428       0x14 ../../sdk/Bitel_Bitel.a(hal_scs_vsr_t1_block.o)
 .text          0x000000004002443c      0x600 ../../sdk/Bitel_Bitel.a(hal_sys_alloc.o)
                0x000000004002459c                hal_sys_pool_config
                0x000000004002461c                hal_sys_alloc
                0x0000000040024588                hal_sys_pool_shutdown
                0x0000000040024798                hal_sys_free
                0x000000004002443c                hal_sys_pool_init
 .text          0x0000000040024a3c     0x19d0 ../../sdk/Bitel_Bitel.a(hal_timer.o)
                0x0000000040024a3c                hal_timer_init
                0x0000000040025864                hal_timer_ioctl
                0x0000000040024b30                hal_timer_shutdown
                0x0000000040026214                hal_timer_detach
                0x0000000040026338                hal_timer_isr
                0x0000000040025430                hal_timer_get_status
                0x00000000400260ac                hal_timer_attach
                0x00000000400256e8                hal_timer_read
                0x0000000040025564                hal_timer_run
                0x0000000040025624                hal_timer_stop
                0x0000000040024e44                hal_timer_set_config
 .text          0x000000004002640c     0x1630 ../../sdk/Bitel_Bitel.a(hal_i2c.o)
                0x0000000040027624                hal_i2c_write
                0x000000004002640c                hal_i2c_init
                0x00000000400265c4                hal_i2c_set_config
                0x0000000040026e7c                hal_i2c_detach
                0x00000000400279a8                hal_i2c_stop_read
                0x0000000040027714                hal_i2c_start_read
                0x0000000040027880                hal_i2c_read
                0x00000000400273f8                hal_i2c_start_write
                0x0000000040026960                hal_i2c_ioctl
                0x0000000040026c90                hal_i2c_attach
                0x0000000040027128                hal_i2c_isr
                0x0000000040027328                hal_i2c_get_status
                0x0000000040026564                hal_i2c_shutdown
 .rodata        0x0000000040027a3c       0x38 ../../sdk/Bitel_Bitel.a(hal_i2c.o)
 .text          0x0000000040027a74      0x1cc ../../sdk/Bitel_Bitel.a(hal_scs_analog.o)
                0x0000000040027a74                hal_scs_analog_check
                0x0000000040027b94                hal_scs_analog_check_voltage
                0x0000000040027ae8                hal_scs_analog_card_presence
 .text          0x0000000040027c40      0x1ac ../../sdk/Bitel_Bitel.a(hal_scs_clock.o)
                0x0000000040027c40                hal_scs_set_clock
 .text          0x0000000040027dec      0x58c ../../sdk/Bitel_Bitel.a(hal_scs_counter.o)
                0x0000000040028018                hal_scs_counter_halt
                0x0000000040027fcc                hal_scs_counter_start_bgt
                0x0000000040027f04                hal_scs_counter_start
                0x00000000400281ac                hal_scs_calculate_wt
                0x000000004002807c                hal_scs_counter_set_gt
                0x0000000040027dec                hal_scs_counter_etu_set
                0x0000000040028130                hal_scs_counter_get_bgt
 .rodata        0x0000000040028378       0x44 ../../sdk/Bitel_Bitel.a(hal_scs_counter.o)
                0x0000000040028378                hal_scs_ftab
                0x0000000040028398                hal_scs_dtab
 .text          0x00000000400283bc      0x234 ../../sdk/Bitel_Bitel.a(hal_scs_handler.o)
                0x0000000040028500                hal_scs_handler_empty
                0x0000000040028488                hal_scs_handler_tx
                0x00000000400283bc                hal_scs_handler_parity
 .text          0x00000000400285f0      0x4cc ../../sdk/Bitel_Bitel.a(hal_scs_t0_in.o)
                0x00000000400285f0                hal_scs_t0_in
 .text          0x0000000040028abc      0x4ac ../../sdk/Bitel_Bitel.a(hal_scs_t0_out.o)
                0x0000000040028abc                hal_scs_t0_out
 .text          0x0000000040028f68      0x584 ../../sdk/Bitel_Bitel.a(hal_scs_vsr_t0_in.o)
                0x0000000040028f68                hal_scs_vsr_t0_in
 .rodata        0x00000000400294ec       0x14 ../../sdk/Bitel_Bitel.a(hal_scs_vsr_t0_in.o)
 .text          0x0000000040029500      0x4ac ../../sdk/Bitel_Bitel.a(hal_scs_vsr_t0_out.o)
                0x0000000040029500                hal_scs_vsr_t0_out
 .rodata        0x00000000400299ac       0x28 ../../sdk/Bitel_Bitel.a(hal_scs_vsr_t0_out.o)
 emv*(.text .rodata*)
 .text          0x00000000400299d4     0x3130 ../../sdk/Bitel_Bitel.a(emv_APDU.o)
                0x000000004002c348                fnAsc2Bcd
                0x000000004002a2b4                gsc_ISOwrite
                0x000000004002c820                pfnHex2Asc
                0x000000004002c118                debug_DOL
                0x000000004002a464                gsc_ISOread
                0x000000004002b828                getTagInfo
                0x000000004002a7c8                ApduC4
                0x0000000040029fa8                gsc_SetCardTYPEandSLOT
                0x0000000040029b00                gsc_Power
                0x000000004002ca88                pfnRTC2YMDHMS
                0x000000004002b7c8                getSysDOLsize
                0x00000000400299d4                gsc_FWversion
                0x000000004002c4e4                fnD642Bcd
                0x000000004002c2b8                debugCDOL
                0x000000004002c684                fnBcd2D64
                0x000000004002bb6c                getDnL
                0x000000004002bd18                debug_FCI
                0x000000004002ade0                ApduResponseCheck
                0x0000000040029de8                gsc_Status
                0x000000004002b5a8                getEMVgbPinBlock
                0x000000004002a5c0                Apdu
                0x000000004002c948                pfnAsc2Hex
                0x0000000040029ee0                gsc_ChangeParameters
                0x000000004002b0cc                pgbAppBufUpdate
                0x000000004002b01c                pgbAppBufAdjust
                0x000000004002ab60                ApduC2
                0x000000004002b938                getTnL
 *fill*         0x000000004002cb04        0x4 00
 .rodata        0x000000004002cb08      0x508 ../../sdk/Bitel_Bitel.a(emv_APDU.o)
                0x000000004002cb70                gcTagName
                0x000000004002cb08                fileNameCAPK
 .text          0x000000004002d010      0x2a8 ../../sdk/Bitel_Bitel.a(emv_init.o)
                0x000000004002d010                emv_init
 .text          0x000000004002d2b8     0x13bc ../../sdk/Bitel_Bitel.a(emv_power_up.o)
                0x000000004002e590                emv_power_up_ifsd_handle
                0x000000004002e23c                emv_power_up_pps_handle
                0x000000004002d654                emv_power_up_handler
                0x000000004002d2b8                emv_power_up
                0x000000004002e028                emv_pps_check
                0x000000004002df10                emv_pps_send
 .text          0x000000004002e674      0x10c ../../sdk/Bitel_Bitel.a(emv_set_slot_info.o)
                0x000000004002e674                emv_set_slot_info
 .text          0x000000004002e780     0x15c0 ../../sdk/Bitel_Bitel.a(emv_t1.o)
                0x000000004002e9dc                emv_t1_check_block
                0x000000004002e808                emv_t1_block
                0x000000004002f048                emv_t1_handler
                0x000000004002ee10                emv_t1_transmit
 .text          0x000000004002fd40      0x3dc ../../sdk/Bitel_Bitel.a(emv_timer.o)
                0x000000004002fe24                emv_timer_init
                0x00000000400300d0                emv_timer_halt
                0x000000004002ffec                emv_timer_run
                0x000000004002fd40                emv_timer_handler
 .rodata        0x000000004003011c       0x20 ../../sdk/Bitel_Bitel.a(emv_timer.o)
                0x000000004003011c                emv_timer_clocks
 .text          0x000000004003013c      0x25c ../../sdk/Bitel_Bitel.a(emv_transmit.o)
                0x000000004003013c                emv_transmit
 .text          0x0000000040030398      0xbc0 ../../sdk/Bitel_Bitel.a(emv_atr.o)
                0x0000000040030cec                emv_calculate_timing
                0x0000000040030398                emv_atr_parse
                0x0000000040030ea0                emv_set_FD_values
 .rodata        0x0000000040030f58       0x54 ../../sdk/Bitel_Bitel.a(emv_atr.o)
 .text          0x0000000040030fac      0x98c ../../sdk/Bitel_Bitel.a(emv_t0.o)
                0x0000000040031260                emv_t0_handler
                0x0000000040030fac                emv_t0_transmit
 .rodata        0x0000000040031938       0x24 ../../sdk/Bitel_Bitel.a(emv_t0.o)
 at83*(.text .rodata*)
 .text          0x000000004003195c     0x1220 ../../sdk/Bitel_Bitel.a(at83c26_api.o)
                0x00000000400319f4                c26_general_init
                0x00000000400322f0                c26_start_cvcc2
                0x000000004003298c                c26_SC1_auto_deactivate
                0x000000004003195c                delay_us_atmel
                0x00000000400327e0                c26_start_cvcc5
                0x0000000040031ca8                c26_start_cvcc1
                0x0000000040031a34                c26_config1_init
                0x00000000400324a4                c26_start_cvcc3
                0x0000000040032b40                c26_SC3_auto_deactivate
                0x0000000040031e10                c26_dcdca_start
                0x0000000040032b68                c26_SC5_auto_deactivate
                0x0000000040032650                c26_start_cvcc4
                0x0000000040032b54                c26_SC4_auto_deactivate
                0x0000000040031efc                c26_dcdcb_start
                0x0000000040032b2c                c26_SC2_auto_deactivate
 .text          0x0000000040032b7c      0x2ec ../../sdk/Bitel_Bitel.a(at83c26_lib.o)
                0x0000000040032b7c                twi_send_message_polling
                0x0000000040032d10                c26_read_command
                0x0000000040032dec                c26_write_command
 sc_at83*(.text .rodata*)
 .text          0x0000000040032e68     0x13d4 ../../sdk/Bitel_Bitel.a(sc_at83c26.o)
                0x0000000040033390                at83c26_set_line_rst
                0x0000000040033afc                at83c26_ioctl
                0x0000000040033ae4                at83c26_attach
                0x00000000400335fc                at83c26_set_power_up
                0x0000000040033e80                at83c26_get_status
                0x0000000040034190                at83c26_check_selected
                0x0000000040032f30                at83c26_select
                0x0000000040032e68                valid_itf_atmel
                0x0000000040033940                at83c26_init
 .rodata        0x000000004003423c      0x124 ../../sdk/Bitel_Bitel.a(sc_at83c26.o)
                0x000000004003423c                at83c26_io
 *(.reftable)
 .reftable      0x0000000040034360       0x54 ././reftable.o
                0x0000000040034360                REFTABLE
 *(.text)
 .text          0x00000000400343b4     0x4c68 ././tmsdown.o
                0x00000000400383f8                CheckAutoTMSDownloadStart
                0x0000000040036a38                SetTMSVariables
                0x0000000040037fb0                UpgradePOSParameter
                0x0000000040036c00                SaveTMSDownloadInfo
                0x0000000040036bc0                InitializeTMSDownloadInfo
                0x0000000040036efc                EraseAllDataTMSDownloadInfo
                0x0000000040036f5c                LoadTMSDownloadSectorNo
                0x0000000040038108                BackupOrRestoreAppDownloadData
                0x000000004003747c                CheckTMSUpgrade
                0x0000000040037e60                EraseAppDataTMSDownloadInfo
                0x0000000040036abc                LoadTMSDownloadInfo
                0x0000000040037fc4                WriteApplicationOrParameter1Sector
                0x000000004003699c                ClearTMSDownloadBufAndRxBuf
                0x0000000040036ce0                SetInitialValueToTMSDownloadInfo
                0x00000000400343b4                TMSDownloadTask
                0x0000000040038818                GetAutoTMSDownloadingDate
                0x0000000040038360                GetZippedAppFlashSectorTopAddr
                0x0000000040037720                UpgradeApplication
                0x0000000040038b68                Output_TMSDownloadInfo
 .text          0x000000004003901c      0xa78 ././timeconv.o
                0x0000000040039230                time_to_tm
 .text          0x0000000040039a94     0x3018 ././scard.o
                0x000000004003b7f4                CompletionSub
                0x000000004003a2c0                appEmvTask
                0x000000004003ca74                TL_SetSlotNo
                0x000000004003c4dc                isoCardNo22Track2Data
                0x0000000040039bf8                WaitTxDone
                0x0000000040039cb0                app_UPDATEgsXRec_ICCbL3
                0x0000000040039c94                DebugBUF
                0x000000004003b384                app_InitReferralCall
                0x000000004003b140                isoStrPANnExpDate
                0x000000004003c358                EMVDISP
                0x000000004003b9bc                app_ApplicationSelection
                0x0000000040039d28                STRDISP
                0x0000000040039a94                deltaMS
                0x000000004003c7f8                isoTrack2Data2CardNo2
                0x0000000040039d34                gsc_IFMinit
                0x000000004003ca3c                Wait1MS
                0x0000000040039ca4                setDEBUG_COMport
                0x0000000040039b78                RdCom
                0x000000004003b120                app_getPANamounts
                0x000000004003ae78                app_SeletedAppTrmParameter
                0x0000000040039f10                gsc_cmmdOUTPUTngetRESPONSE
                0x0000000040039fd8                BuildIccData
                0x0000000040039bb0                WrCom
                0x000000004003a164                CheckSmartCardSlot
                0x000000004003b514                OnLineProcessSub
                0x000000004003ca94                TL_GetSlotNo
                0x0000000040039cbc                Lprintf
                0x000000004003bf0c                InitEmvLib
 .text          0x000000004003caac     0x1914 ././main.o
                0x000000004003caac                main
                0x000000004003d5c8                Output_SystemInfomation
 .text          0x000000004003e3c0     0x1728 ././rtc.o
                0x000000004003e3c0                RTCTask
                0x000000004003f918                GetULDateTime
                0x000000004003f100                DisplayYYYYMMDD
                0x000000004003f2c8                InitializeRTCDateTime
                0x000000004003f79c                mktime
                0x000000004003eeb8                LCDBacklightOnOffControl
                0x000000004003f20c                Displayhhmmss
                0x000000004003efbc                DisplayDateTime
                0x000000004003f330                SetRTCDateTimeWhenPowerIsTurnedOn
 .text          0x000000004003fae8     0x1c6c ././apppos.o
                0x0000000040040ee4                SavePrintTransactionLog
                0x000000004003fae8                DebugOutputTrxnLogData
                0x00000000400403b8                LoadPOSUtilBuf
                0x000000004004123c                PrintReversalReceipt
                0x000000004004103c                SaveReprintingCount
                0x0000000040040440                SavePOSUtilBuf
                0x0000000040040720                SaveTxTransactionLog
                0x0000000040041048                SaveReversalTransactionLog
                0x0000000040041150                GotoReversalMode
                0x00000000400414a4                PerformReversalTransaction
                0x0000000040040cb4                SaveRxTransactionLog
                0x0000000040041398                PrintUnsuccessfulReversalReceipt
                0x00000000400404a4                GetTransactionType
                0x000000004003fd50                DebugOutputTrxnLog
                0x000000004003fd60                GetNextTrxnParameter
 .text          0x0000000040041754      0x5d8 ././rs232.o
                0x0000000040041754                RS232Task
                0x0000000040041cd8                RS232Close
                0x0000000040041c50                RS232Open
 .text          0x0000000040041d2c     0x9fe4 ././printer.o
                0x0000000040049ebc                PrintMerchantAddress
                0x00000000400430cc                DetectPaper
                0x000000004004a44c                PrintMerchantID
                0x000000004004b53c                PrintBalance
                0x000000004004b320                PrintAmount
                0x000000004004baf8                PrintAllEquals
                0x0000000040048f98                BuildReprintBillPaymentWithExternalPrinter
                0x0000000040049e10                PrintMerchantName
                0x000000004004a0b0                PrintDateAndTime
                0x0000000040049d68                PrintStoreName
                0x0000000040043810                BuildPrintPOSInfoReport
                0x000000004004a5e0                PrintTerminalID
                0x000000004004b794                PrintTotal
                0x000000004004bb98                OutputReceiptData
                0x000000004004b9b8                PrintAllStars
                0x000000004004ba58                PrintAllDashes
                0x0000000040041d2c                PrintTask
                0x000000004004acdc                PrintReferenceNo
                0x0000000040049a88                PrintCardSystem
                0x000000004004311c                InitializePrinterParameter
                0x000000004004b758                PrintStoreAdvertisement
                0x0000000040049cc8                PrintPoweredbyPayMaster
                0x000000004004b1e0                PrintTraceNo
                0x0000000040046b50                BuildPrintBalanceReceipt
                0x00000000400479d4                BuildPrintUnsuccessfulReversalReceipt
                0x000000004004a378                PrintBuyTrxnName
                0x00000000400472b0                BuildPrintReversalReceipt
                0x000000004004a018                PrintULDateAndTime
                0x000000004004b0a0                PrintSeqNo
                0x0000000040049c00                PrintApplicationVersion
                0x000000004004af60                PrintBatchNo
                0x000000004004ae1c                PrintCustomerID
                0x0000000040045e50                BuildPrintEndOfDayReceipt
                0x000000004004a8e0                PrintPAN
                0x000000004004aae8                PrintApprovalNo
                0x000000004004538c                BuildPrintTrxnReceipt
                0x0000000040049f64                PrintMultiMerchantStoreName
                0x000000004004806c                BuildPrintTrxnsReport
                0x000000004004a718                PrintPOSSerialNo
                0x000000004004327c                BuildPrintLine
                0x0000000040049b54                PrintPaymasterLogo
                0x0000000040048b8c                BuildReprintBuyWithExternalPrinter
                0x00000000400431f0                PrintSetFF
 .text          0x000000004004bd10     0x14d4 ././utils.o
                0x000000004004c264                LCDDisplay4Lines
                0x000000004004c200                SetMenuScrollUpDownInfo
                0x000000004004bd10                MenuScrollUpDown
                0x000000004004d16c                InitializeAlpNoInputParameter
                0x000000004004c450                InputAlpNoString
 .text          0x000000004004d1e4    0x1048c ././key.o
                0x000000004004d56c                BuildTrxnQueryString
                0x000000004005b9fc                MainStatusSetting
                0x000000004005cb68                ResetHelpDeskTelNo
                0x000000004004ee74                BuildQueryString
                0x000000004005bc48                DisplayTrxnTelNo
                0x000000004005c29c                DisplayBlackListTelNo
                0x000000004004f4ac                InputKeyService
                0x000000004005b6dc                InitializeGlobalVariables
                0x000000004005b9a4                ClearTempKeyBufAndStringCopy
                0x000000004005bec0                ResetTrxnTelNo
                0x000000004005babc                ErrorDisplayAndGoInitialStatus
                0x000000004005bb94                ErrorDisplayAndGoErrorStatus
                0x000000004005c5ac                DisplayTMSTelNo
                0x000000004005c824                ResetTMSTelNo
                0x000000004004f0c0                KeyTask
                0x000000004005bf8c                DisplayEODTelNo
                0x000000004004eb40                SetReversalReqData
                0x000000004004df90                BuildEftTotalQueryString
                0x0000000040059da8                CancelKeyService
                0x000000004005cc34                DisplayLCDMsgOrPrinterMsgInDebugMode
                0x000000004005c1d0                ResetEODTelNo
                0x000000004005c8f0                DisplayHelpDeskTelNo
                0x000000004004d1e4                InitTrxnReqData
                0x000000004004f05c                dequeue_key
                0x000000004005c4e0                ResetBlackListTelNo
                0x000000004004e3a8                BuildCallHomeQueryString
                0x0000000040050200                EnterKeyService
                0x000000004005b160                SetInitialStatus
 .text          0x000000004005d670     0x1920 ././modem.o
                0x000000004005de54                ModemClose
                0x000000004005ddd4                ModemOpen
                0x000000004005e158                AbnormalProcessingAfterTx
                0x000000004005d954                DisplayConnectionErrorConditionAndGotoInitialStatus
                0x000000004005df28                CheckDisconnect
                0x000000004005e328                OnlineTrxnResultProcessing
                0x000000004005da48                GetTrxnMenuActiveStatus
                0x000000004005d884                DisplayConnectionErrorCondition
                0x000000004005d6dc                GetConnectionConditions
                0x000000004005d670                ModemTask
                0x000000004005dfdc                AbnormalProcessingBeforeTx
 .text          0x000000004005ef90     0x1364 ././flash.o
                0x000000004005f870                LoadFlashPOSUtilInfo
                0x000000004005f70c                WriteTransactionLog
                0x000000004005f350                ResetPOSSetupInfo
                0x000000004005f764                EraseAllTransactionLog
                0x000000004005f034                SetInitialPOSSetupInfo
                0x000000004005f5c0                GetTcpIPLocalParameterChange
                0x000000004005f300                InitializePOSSetupInfo
                0x0000000040060088                InitFlashParameters
                0x000000004005f474                WritePOSSetupInfo
                0x0000000040060034                PauseUntilEnterkeyPressed
                0x000000004005f414                ResetMerchantPassword
                0x000000004005ef90                LoadPOSSetupInfo
                0x000000004005ff80                WritePOSUtil
 .text          0x00000000400602f4     0x86dc ././htmlutil.o
                0x0000000040063a18                ProcessEndTag
                0x00000000400685d4                GetDecryptedSessionKey
                0x0000000040065bf8                rc4_init
                0x00000000400632c8                AddTLVBuf
                0x0000000040067a0c                SHA256_Update
                0x0000000040067cb0                SHA256_Final
                0x0000000040065824                BuildHtmlRequestMessage
                0x0000000040065e68                SHA256_Transform
                0x0000000040063604                ProcessStartTag
                0x0000000040064ea0                NIBSS_Parsing
                0x00000000400602f4                ProcessTagNValue
                0x0000000040063268                pop
                0x0000000040068238                hexStringToByteArray
                0x0000000040067984                SHA256_Init
                0x00000000400688b0                GetEncryptedTrack2
                0x00000000400653f4                GetHostAndMethod
                0x0000000040065d40                rc4_crypt
                0x0000000040068054                SHA256_End
                0x0000000040068470                GetValueOnly
                0x000000004006818c                SHA256_Data
                0x00000000400630cc                GetTagName
                0x00000000400631f4                push
                0x0000000040065b58                GetApplIdx
                0x00000000400687cc                SHA256_Signature
 .text          0x00000000400689d0     0x2fe4 ././hwtest.o
                0x000000004006ac18                LCDTest
                0x00000000400689d0                MSRTest
                0x000000004006af9c                LCDDotTest
                0x000000004006a428                KeyTest_IC5100P
                0x000000004006b13c                RS232Test
                0x000000004006b02c                LCDContrastTest
                0x00000000400693e4                ICCardTest
                0x000000004006b610                RTCTest
                0x0000000040069af8                KeyTest_IC3100PE
                0x000000004006aecc                LCDBacklightTest
 .text          0x000000004006b9b4     0x41bc ././sfontlib.o
                0x000000004006bd94                InitFontInfo
                0x000000004006f8dc                LcdDrawTextA
                0x000000004006f224                LcdDrawRectA
                0x000000004006ec58                lcd_printf
                0x000000004006ce34                GetBitmap
                0x000000004006bed8                ClrScr
                0x000000004006ed04                lcd_printfA
                0x000000004006bd58                SetDisplayMode
                0x000000004006be50                CloseFontInfo
                0x000000004006bd84                GetDisplayMode
                0x000000004006d6a8                LcdDisplayA
                0x000000004006dcfc                LcdTextOutA
                0x000000004006cda4                LcdDrawBitmapA
                0x000000004006ee00                LcdDrawPixelA
                0x000000004006c0c0                ClrScrA
                0x000000004006bc7c                AttachExtFont
                0x000000004006ef78                LcdDrawLineA
                0x000000004006b9b4                AddFont
                0x000000004006dbb4                GetLcdTextPosA
                0x000000004006dc58                GetLcdTextMetricsA
                0x000000004006f4cc                LcdDrawCircleA
                0x000000004006ef2c                GetLcdPixel
                0x000000004006db18                SetTextPosA
                0x000000004006f638                LcdDrawEllipseA
                0x000000004006d67c                LcdDisplay
                0x000000004006e140                SetLcdULineA
                0x000000004006be58                SelectFont
                0x000000004006dee8                SetLcdInvertA
                0x000000004006ebf8                lcd_putcharA
 .text          0x000000004006fb70     0x9fe4 ././gsm.o
                0x000000004006ff7c                GprsDataModeWrite
                0x00000000400705a0                GprsCheckDisconnect
                0x000000004007023c                GprsDisplaySIMErrorMessage
                0x0000000040074c9c                GprsWavecomDisconnect
                0x000000004006fb70                GprsOpen
                0x0000000040074c20                GprsDisconnect
                0x0000000040075b30                GprsCinterionTask
                0x0000000040075274                GprsCinterionDisconnect
                0x000000004007070c                GprsTask
                0x0000000040075844                GprsModuleInitialize
                0x000000004006fcf8                GprsPowerOn
                0x000000004007077c                GprsWavecomTask
                0x0000000040070498                GprsDisplayAntennaLevelBar
                0x000000004007015c                SendRequestMessage
                0x000000004006fdb8                GprsPowerOff
                0x000000004006fea0                GprsSendCmdSetTime
                0x000000004006fe5c                GprsCmdModeWrite
 .text          0x0000000040079b54      0x8a8 ././msr.o
                0x000000004007a398                MSRRead
                0x000000004007a1f0                ClearAllMSRDataBuf
                0x000000004007a2e8                MSREnable
                0x000000004007a340                MSRDisable
                0x0000000040079b54                MSRTask
 .text          0x000000004007a3fc       0x98 ../../lib/libc.a(memcmp.o)
                0x000000004007a3fc                memcmp
 .text          0x000000004007a494      0x220 ../../lib/libc.a(memcpy.o)
                0x000000004007a494                memcpy
 .text          0x000000004007a6b4       0xa8 ../../lib/libc.a(memset.o)
                0x000000004007a6b4                memset
 .text          0x000000004007a75c      0x18c ../../lib/libc.a(strcmp.o)
                0x000000004007a75c                strcmp
 .text          0x000000004007a8e8      0x1a0 ../../lib/libc.a(strcpy.o)
                0x000000004007a8e8                strcpy
 .text          0x000000004007aa88      0x168 ../../lib/libc.a(strlen.o)
                0x000000004007aa88                strlen
 .text          0x000000004007abf0      0x4b8 ../../lib/libe.a(_muldf3.o)
                0x000000004007abf0                __muldf3
 .text          0x000000004007b0a8      0x510 ../../lib/libe.a(_adddf3.o)
                0x000000004007b0a8                __adddf3
                0x000000004007b5a8                __subdf3
 .text          0x000000004007b5b8       0xe0 ../../lib/libe.a(_fixdfsi.o)
                0x000000004007b5b8                __fixdfsi
 .text          0x000000004007b698       0xb0 ../../lib/libe.a(_floatsidf.o)
                0x000000004007b698                __floatsidf
 .text          0x000000004007b748      0xc94 ../../sdk/Bitel_Bitel.a(BITEL_TL.o)
                0x000000004007b748                TL_SendReceive
                0x000000004007c28c                TL_Open
                0x000000004007c3c8                TL_Close
 .text          0x000000004007c3dc     0x531c ../../sdk/Bitel_Bitel.a(CryptoLib.o)
                0x000000004007f3ec                SaveCryptoMem
                0x000000004007ced0                CheckServerInfo
                0x000000004007c3dc                AES_InitCrc16
                0x000000004007eb6c                CheckKeyBlockCrc
                0x000000004007e4dc                AESKeyInit
                0x000000004007eb08                LoadCryptoTextM
                0x000000004007d660                _rtc_read_reg
                0x000000004007e950                SaveCryptoText
                0x000000004007c500                MakePublicKey1Checksum
                0x000000004007d820                WriteRandom
                0x000000004007d5a4                _rtc_write_reg
                0x000000004007d88c                bitel_crypto_set_key
                0x000000004007e58c                AES_CalculateCrc
                0x000000004007f47c                CryptoKeyLoad
                0x000000004007d79c                ReadRandom
                0x000000004007d470                _GetKeyInfoData
                0x000000004007ea70                LoadCryptoText
                0x000000004007c6bc                MakeTerminalInfo
                0x000000004007c498                AES_Crc16
                0x000000004007ea0c                SaveCryptoTextM
 .text          0x00000000400816f8     0x87d8 ../../sdk/Bitel_Bitel.a(EMV_APP.o)
                0x00000000400855cc                app_TRMprocess
                0x0000000040084e0c                app_CVMprocess
                0x00000000400889dc                app_EncipheredPinVerifyOnLine
                0x0000000040088fe8                app_updateGenACresults
                0x00000000400816f8                app_initTrmTrxnVariables
                0x0000000040083d64                app_ReadApplicationData
                0x0000000040082240                app_BuildCandidateList
                0x000000004008864c                app_EncipheredPinVerifyICC
                0x00000000400827c4                app_ReadRecordPSD
                0x0000000040089b68                app_makeDOLobjects
                0x00000000400864c8                app_Completion
                0x00000000400898c0                app_getTC_HashValue
                0x00000000400881e0                app_CombinedCDAproc
                0x000000004008975c                app_checkSamePrimitiveTag
                0x0000000040089654                app_checkTVRwithIACorTAC
                0x0000000040089434                app_checkGenACresults
                0x0000000040089858                app_checkTrmSupportOnLine
                0x0000000040088ec0                app_PlaintextPinVerifyICC
                0x0000000040087250                app_IssuerScriptProcess
                0x0000000040083784                app_GetProcessingOptions
                0x0000000040088a94                app_getPinTryCounter
                0x0000000040088bd8                app_getDataPinBlock
                0x0000000040086ff4                UpdateTrmISR
                0x0000000040084840                app_OfflineDataAuthentication
                0x00000000400877ec                app_OffLineSDAproc
                0x0000000040088d78                app_checkVERIFYstatus
                0x00000000400862ac                app_CAAprocess
                0x0000000040089ab8                app_searchTAGinDOL
                0x0000000040087c48                app_OffLineDDAproc
                0x00000000400863a8                app_OnLineProcess
                0x0000000040086d3c                app_IssuerAuthentication
                0x00000000400830e0                app_makeApplicationList
                0x0000000040085e20                app_TAAprocess
                0x0000000040084a10                app_ProcessRestrictions
 .text          0x0000000040089ed0     0x23d8 ../../sdk/Bitel_Bitel.a(EMV_CAT.o)
                0x000000004008c094                app_comparePKE
                0x000000004008c140                app_comparePAN
                0x0000000040089ed0                SetTrmARC
                0x0000000040089f58                SetTrmCAPK
                0x000000004008b52c                retrive_ICCpinEncPK
                0x000000004008c248                app_compareCSN
                0x000000004008a2cc                SetTrmRevocList
                0x000000004008a750                retrive_IssuerPK
                0x000000004008a2fc                app_pgsTrmRsaKeyMake
                0x000000004008be08                app_compareYYMMDD
                0x000000004008bf58                app_compareMMYY
                0x000000004008bb68                app_checkYYMMDD
                0x000000004008ad94                retrive_ICCardPK
                0x000000004008a544                retrive_CAPK
                0x000000004008a2e4                SetTrmExcepList
 .text          0x000000004008c2a8     0x35ec ../../sdk/Bitel_Bitel.a(ISO8583.o)
                0x000000004008ec10                asc_to_str
                0x000000004008d350                asc2bcd
                0x000000004008e2e0                xnu_to_xnu
                0x000000004008e790                zL2_to_str
                0x000000004008e588                xnu_to_str
                0x000000004008f1ec                hst_to_bin
                0x000000004008d17c                chr2hex
                0x000000004008e1e8                nL2_to_str
                0x000000004008c424                BitMap_Set
                0x000000004008f5cc                bL3_to_bL3
                0x000000004008ec7c                aL2_to_aL2
                0x000000004008ed50                str_to_aL2
                0x000000004008c3ec                BitMap_Clear
                0x000000004008e9c4                zL3_to_str
                0x000000004008d9b4                LL2int
                0x000000004008de24                num_to_str
                0x000000004008dbf8                num_to_asc
                0x000000004008c2a8                BitMap_Make
                0x000000004008d890                int2LLL
                0x000000004008e358                asc_to_xnu
                0x000000004008f304                bL2_to_bL2
                0x000000004008c50c                BitMap_Reset
                0x000000004008d590                zasc2bcd
                0x000000004008dce4                str_to_num
                0x000000004008e888                str_to_zL3
                0x000000004008d7d0                int2LL
                0x000000004008d6b4                bcd2zasc
                0x000000004008ee24                aL2_to_str
                0x000000004008dfb0                nL3_to_nL3
                0x000000004008f3d8                hst_to_bL2
                0x000000004008eb14                str_to_asc
                0x000000004008e408                xnu_to_asc
                0x000000004008ef08                aL3_to_aL3
                0x000000004008d2a4                zchr2hex
                0x000000004008efdc                str_to_aL3
                0x000000004008e0ac                str_to_nL2
                0x000000004008eabc                asc_to_asc
                0x000000004008d474                bcd2asc
                0x000000004008daf8                asc_to_num
                0x000000004008f194                bin_to_bin
                0x000000004008c6f4                process_iso8583
                0x000000004008d230                hex2chr
                0x000000004008f0b0                aL3_to_str
                0x000000004008e4d4                str_to_xnu
                0x000000004008deb4                nL2_to_nL2
                0x000000004008f7ac                bL3_to_hst
                0x000000004008c5f8                BitMap_Test
                0x000000004008d300                hex2zchr
                0x000000004008da84                num_to_num
                0x000000004008f4e4                bL2_to_hst
                0x000000004008e654                str_to_zL2
                0x000000004008f28c                bin_to_hst
                0x000000004008da04                LLL2int
                0x000000004008f6a0                hst_to_bL3
 .text          0x000000004008f894     0x155c ../../sdk/Bitel_Bitel.a(KEYLIB.o)
                0x00000000400905b8                InputNoAmount
                0x0000000040090af8                InsertDOTorComma
                0x000000004008fbd8                InputPassWord
                0x000000004008fdb4                InputDateTime
                0x000000004008fb1c                InputOneNo
                0x000000004008f894                InputNoString
 .text          0x0000000040090df0     0x1e98 ../../sdk/Bitel_Bitel.a(KEYPAD.o)
                0x0000000040090f34                KEYPAD_EnterPassword
                0x000000004009223c                KEYPAD_EnterAmount
                0x000000004009100c                KEYPAD_Input
                0x0000000040090e5c                KEYPAD_EnterAlphapet
                0x000000004009297c                InputIPA
                0x0000000040090ec8                KEYPAD_EnterIP
                0x000000004009277c                PINBAD_WaitKey
                0x0000000040092908                KEYPAD_BuzzerTone
                0x00000000400928a0                KEYPAD_asc_long
                0x00000000400927c0                KEYPAD_long_asc
                0x0000000040090df0                KEYPAD_EnterHex
                0x0000000040090fa0                KEYPAD_EnterDigits
                0x0000000040092bd4                Lprintf_1
 .text          0x0000000040092c88      0x72c ../../sdk/Bitel_Bitel.a(LCDLIB.o)
                0x0000000040092e48                HighlightOff
                0x000000004009303c                ClearLCDLine
                0x0000000040092f0c                HighlightAllOff
                0x0000000040092fa4                ClearLCDScreen
                0x0000000040092d1c                CursorOff
                0x00000000400931b0                Lprint_1
                0x0000000040092d84                HighlightOn
                0x0000000040092c88                CursorOn
                0x000000004009308c                Lprint
                0x0000000040093250                Lprint_n
 .text          0x00000000400933b4     0x179c ../../sdk/Bitel_Bitel.a(RTCLIB.o)
                0x0000000040093434                SetRTCDateTime
                0x0000000040093dd8                convMJD2JALALI
                0x0000000040093db0                CheckBigMonth
                0x00000000400933b4                GetRTCDateTime
                0x0000000040093b20                CalculateDay
                0x000000004009444c                convJALALI2MJD
                0x0000000040093cec                CheckLeapMonth
                0x00000000400936e4                CheckDateAndTime
 .text          0x0000000040094b50     0x1960 ../../sdk/Bitel_Bitel.a(RTCLIB2.o)
                0x00000000400954b4                RTC_GetGregorianLeapMonth
                0x0000000040095dac                RTC_Jalali2Gregorian
                0x0000000040094bd0                RTC_SetDateTime
                0x0000000040094e80                RTC_CheckGregorianInputDateTime
                0x00000000400952d8                RTC_GetGregorianDay
                0x0000000040094b50                RTC_GetDateTime
                0x0000000040095738                RTC_Gregorian2Jalali
                0x0000000040095578                RTC_GetGregorianBigMonth
                0x000000004009559c                RTC_GetGregorianDays
 .text          0x00000000400964b0      0x1d4 ../../sdk/Bitel_Bitel.a(TIMERLIB.o)
                0x00000000400964b0                WaitKeyPress10MS
                0x0000000040096628                delta10MS
                0x00000000400965b8                Get10MSTimer
                0x00000000400965a4                Get1MSTimer
                0x00000000400965cc                delta1MS
 .text          0x0000000040096684       0xa4 ../../sdk/Bitel_Bitel.a(UTILLIB.o)
                0x0000000040096684                IndianNo2FarsiNo
 .text          0x0000000040096728       0x68 ../../sdk/Bitel_Bitel.a(_ledf2.o)
                0x0000000040096728                __ledf2
 .text          0x0000000040096790       0x98 ../../sdk/Bitel_Bitel.a(_orderdf2.o)
                0x0000000040096790                __orderdf2
 .text          0x0000000040096828      0xad8 ../../sdk/Bitel_Bitel.a(gem_TL.o)
 .text          0x0000000040097300     0x2728 ../../sdk/Bitel_Bitel.a(libc.o)
                0x000000004009966c                Bitel_strncpy
                0x000000004009903c                Bitel_strlen
                0x0000000040098ebc                Bitel_vsprintf
                0x0000000040098f28                Bitel_sprintf
                0x00000000400994c0                Bitel_tolower
                0x0000000040097318                _mon_getc
                0x0000000040097300                __umoddi3
                0x0000000040097308                __udivdi3
                0x0000000040099758                Bitel_Stop_main_Loop
                0x0000000040098008                Bitel_qsort
                0x0000000040098df4                Bitel_memchr
                0x000000004009978c                Bitel_strncmp
                0x00000000400995f8                Bitel_memset
                0x0000000040099518                Bitel_toupper
                0x0000000040099970                RprintBuf
                0x00000000400998b0                new_String
                0x0000000040097310                _mon_write
                0x0000000040098fe4                Bitel_strcpy
                0x0000000040099088                Bitel_strtol
                0x0000000040099570                Bitel_memcpy
                0x00000000400984a8                Bitel_bsearch
                0x0000000040098f6c                Bitel_sprintf_one
 .text          0x0000000040099a28     0x779c ../../sdk/Bitel_Bitel.a(ppdrv.o)
                0x000000004009ba8c                InputPinpadKey
                0x000000004009a538                RdPED
                0x00000000400a10d4                PinpadBypassTask
                0x00000000400a1034                InitPinpadBypassTask
                0x000000004009f6f4                EncryptWorkingKey
                0x00000000400a0fc0                PED_GenerateMAC
                0x00000000400a0f44                PED_LoadInitKey
                0x00000000400a0cd0                ComputeMAC
                0x000000004009a1bc                InitComm
                0x000000004009a354                DrvWrCom
                0x000000004009a5e8                SendRespPacket
                0x000000004009b9bc                CheckHexVal
                0x00000000400a0948                dUKPT_getPEK
                0x000000004009bee8                PinpadDrvTask
                0x000000004009f804                SaveDukptKey
                0x000000004009fff8                dUKPT_LoadInit
                0x000000004009a244                InitPinpadDrv
                0x000000004009a0b4                Hex2Char
                0x000000004009a33c                SetPinpadMode
                0x000000004009a48c                WrPED
                0x0000000040099a28                DisplayMsg
                0x000000004009a400                DrvRdCom
                0x0000000040099ef8                Char2Hex
                0x000000004009dd14                ProcPinData
                0x000000004009f94c                LoadDukptKey
                0x00000000400a0e1c                PED_EncryptDUKPT
 .text          0x00000000400a11c4     0x237c ../../sdk/Bitel_Bitel.a(r_enhanc.o)
                0x00000000400a2198                R_OpenUpdate
                0x00000000400a1b44                R_SealInit
                0x00000000400a1730                R_SignFinal
                0x00000000400a26a0                R_VerifyPEMSignature
                0x00000000400a18d8                R_VerifyUpdate
                0x00000000400a1248                R_DigestInit
                0x00000000400a25e0                R_SignBlock
                0x00000000400a1944                R_VerifyFinal
                0x00000000400a1d58                R_SealUpdate
                0x00000000400a14dc                R_DigestFinal
                0x00000000400a250c                R_SignPEMBlock
                0x00000000400a2374                R_OpenFinal
                0x00000000400a27b8                R_VerifyBlockSignature
                0x00000000400a1f30                R_SealFinal
                0x00000000400a11c4                R_RSAEuroInfo
                0x00000000400a2878                R_SealPEMBlock
                0x00000000400a2d2c                R_DecryptOpenPEMBlock
                0x00000000400a2f5c                R_EncryptOpenPEMBlock
                0x00000000400a2a00                R_OpenPEMBlock
                0x00000000400a1878                R_VerifyInit
                0x00000000400a1384                R_DigestUpdate
                0x00000000400a16c4                R_SignUpdate
                0x00000000400a1664                R_SignInit
                0x00000000400a2c70                R_DigestBlock
                0x00000000400a1fec                R_OpenInit
 .text          0x00000000400a3540      0xa44 ../../sdk/Bitel_Bitel.a(r_keygen.o)
                0x00000000400a3540                R_GeneratePEMKeys
 .text          0x00000000400a3f84      0x73c ../../sdk/Bitel_Bitel.a(r_random.o)
                0x00000000400a4154                R_GenerateBytes
                0x00000000400a3fdc                R_RandomUpdate
                0x00000000400a4130                R_GetRandomBytesNeeded
                0x00000000400a444c                R_RandomMix
                0x00000000400a4310                R_RandomFinal
                0x00000000400a4348                R_RandomCreate
                0x00000000400a3f84                R_RandomInit
 .text          0x00000000400a46c0      0xef0 ../../sdk/Bitel_Bitel.a(rsa.o)
                0x00000000400a4c1c                RSAPrivateDecrypt
                0x00000000400a46c0                RSAPublicEncrypt
                0x00000000400a4e34                RsaPublicKeyFunction
                0x00000000400a4ab8                RSAPrivateEncrypt
                0x00000000400a5008                RsaPrivateKeyFunction
                0x00000000400a4894                RSAPublicDecrypt
 .text          0x00000000400a55b0     0x46f8 ../../sdk/Bitel_Bitel.a(shsc.o)
                0x00000000400a5648                SHSUpdate
                0x00000000400a5880                SHSFinal
                0x00000000400a55b0                SHSInit
 .text          0x00000000400a9ca8      0xc88 ../../sdk/Bitel_Bitel.a(DES_ECB.o)
                0x00000000400aa524                des
 .text          0x00000000400aa930     0x159c ../../sdk/Bitel_Bitel.a(FRMWRI.o)
                0x00000000400ab21c                _formatted_write
 .text          0x00000000400abecc     0x1f10 ../../sdk/Bitel_Bitel.a(NN.o)
                0x00000000400acdf8                NN_Mod
                0x00000000400ac2d8                NN_Mult
                0x00000000400ac714                NN_Div
                0x00000000400ad93c                NN_Digits
                0x00000000400abfec                NN_Encode
                0x00000000400ad9d4                NN_Add
                0x00000000400abecc                NN_Decode
                0x00000000400ac1c4                NN_Sub
                0x00000000400ad260                NN_ModInv
                0x00000000400acec8                NN_ModExp
                0x00000000400ac550                NN_LShift
                0x00000000400ad6f8                NN_Bits
                0x00000000400ac0f4                NN_AssignZero
                0x00000000400ad8d8                NN_Assign
                0x00000000400ad868                NN_Zero
                0x00000000400ace50                NN_ModMult
                0x00000000400ad790                NN_Cmp
                0x00000000400ad4b4                NN_Gcd
                0x00000000400ac140                NN_Assign2Exp
                0x00000000400ac630                NN_RShift
 *fill*         0x00000000400adddc        0x4 00
 .text          0x00000000400adde0      0x4c0 ../../sdk/Bitel_Bitel.a(_divdf3.o)
                0x00000000400adde0                __divdf3
 .text          0x00000000400ae2a0       0x68 ../../sdk/Bitel_Bitel.a(_gedf2.o)
                0x00000000400ae2a0                __gedf2
 .text          0x00000000400ae308       0x68 ../../sdk/Bitel_Bitel.a(_ltdf2.o)
                0x00000000400ae308                __ltdf2
 .text          0x00000000400ae370       0x68 ../../sdk/Bitel_Bitel.a(_nedf2.o)
                0x00000000400ae370                __nedf2
 .text          0x00000000400ae3d8     0x2d50 ../../sdk/Bitel_Bitel.a(desc.o)
                0x00000000400ae680                DESX_CBCInit
                0x00000000400ae654                DES_CBCRestart
                0x00000000400af5dc                desfunc
                0x00000000400ae9bc                DESX_CBCRestart
                0x00000000400aeee0                unscrunch
                0x00000000400ae760                DESX_CBCUpdate
                0x00000000400ae468                DES_CBCUpdate
                0x00000000400aed74                scrunch
                0x00000000400ae9e8                DES3_CBCInit
                0x00000000400ae3d8                DES_CBCInit
                0x00000000400aeb14                DES3_CBCUpdate
                0x00000000400aed48                DES3_CBCRestart
                0x00000000400af004                deskey
 .text          0x00000000400b1128      0x69c ../../sdk/Bitel_Bitel.a(lebRS232.o)
                0x00000000400b1598                Bitel_RS_Status
                0x00000000400b1504                Bitel_RS_printf
                0x00000000400b1260                Bitel_KeyPadScan
                0x00000000400b1304                Bitel_RS_Anser
                0x00000000400b142c                Bitel_RS_Lisen
                0x00000000400b15e4                Bitel_Init_RS232
                0x00000000400b1128                get_one_char
 .text          0x00000000400b17c4     0x20b0 ../../sdk/Bitel_Bitel.a(libEncryption.o)
                0x00000000400b3514                MD5Final
                0x00000000400b1854                Bitel_Encryption_hex2chr
                0x00000000400b1c18                Bitel_Encryption_sb3_to_str
                0x00000000400b2168                Bitel_Encryption_str_to_bcd
                0x00000000400b2014                Bitel_Encryption_bcd_to_str
                0x00000000400b3320                MD5Init
                0x00000000400b1a58                Bitel_Encryption_BCD2ASCS
                0x00000000400b3378                MD5Update
                0x00000000400b18b0                Bitel_Encryption_ASC2BCDS
                0x00000000400b3754                Bitel_Encryption_MD5
                0x00000000400b1dc4                Bitel_Encryption_str_to_sb3
                0x00000000400b17c4                Bitel_Encryption_chr2hex
 .text          0x00000000400b3874      0x69c ../../sdk/Bitel_Bitel.a(libPorts.o)
                0x00000000400b3874                Bitel_Com0_Init
                0x00000000400b3a0c                Bitel_Com3_Init
                0x00000000400b3984                Bitel_Com2_Init
                0x00000000400b38fc                Bitel_Com1_Init
                0x00000000400b3d88                Bitel_Read_Com
                0x00000000400b3a94                Bitel_Write_Com
 .text          0x00000000400b3f10      0x398 ../../sdk/Bitel_Bitel.a(lib_timer.o)
                0x00000000400b41ac                Bitel_Wait_Normal_Wait
                0x00000000400b4238                Bitel_Wait_Normal_Delta_1MS
                0x00000000400b4030                Bitel_Wait_Wait_1_MS
                0x00000000400b4210                Bitel_Wait_Get_10MS_Timer
                0x00000000400b4170                Bitel_Wait_Key_Press
                0x00000000400b4084                Bitel_Wait_Delta_Short_MS
                0x00000000400b41e8                Bitel_Wait_Get_1MS_Timer
                0x00000000400b3f10                Bitel_Wait_Sleep10
                0x00000000400b4270                Bitel_Wait_Normal_Delta_10MS
                0x00000000400b3f54                Bitel_Wait_Dalta_Long_MS
 .text          0x00000000400b42a8      0x4c0 ../../sdk/Bitel_Bitel.a(md2c.o)
                0x00000000400b430c                MD2Update
                0x00000000400b447c                MD2Final
                0x00000000400b42a8                MD2Init
 .text          0x00000000400b4768     0x12c0 ../../sdk/Bitel_Bitel.a(md4c.o)
                0x00000000400b4974                MD4Final
                0x00000000400b47c4                MD4Update
                0x00000000400b4768                MD4Init
 .text          0x00000000400b5a28      0x538 ../../sdk/Bitel_Bitel.a(prime.o)
                0x00000000400b5a28                GeneratePrime
 .text          0x00000000400b5f60      0x634 ../../sdk/Bitel_Bitel.a(r_encode.o)
                0x00000000400b5f60                R_EncodePEMBlock
                0x00000000400b6080                R_DecodePEMBlock
 *fill*         0x00000000400b6594        0x4 00
 .text          0x00000000400b6598      0x2e0 ../../sdk/Bitel_Bitel.a(_addsf3.o)
                0x00000000400b6868                __subsf3
                0x00000000400b6598                __addsf3
 .text          0x00000000400b6878       0xc8 ../../sdk/Bitel_Bitel.a(_extendsfdf2.o)
                0x00000000400b6878                __extendsfdf2
 .text          0x00000000400b6940       0x90 ../../sdk/Bitel_Bitel.a(_fixsfsi.o)
                0x00000000400b6940                __fixsfsi
 .text          0x00000000400b69d0      0x190 ../../sdk/Bitel_Bitel.a(_floatsisf.o)
                0x00000000400b69d0                __floatsisf
 .text          0x00000000400b6b60      0x130 ../../sdk/Bitel_Bitel.a(_truncdfsf2.o)
                0x00000000400b6b60                __truncdfsf2
 *(.rodata*)
 .rodata        0x00000000400b6c90      0xfd8 ././tmsdown.o
 .rodata        0x00000000400b7c68       0x34 ././timeconv.o
 *fill*         0x00000000400b7c9c        0x4 00
 .rodata        0x00000000400b7ca0      0x2a8 ././scard.o
                0x00000000400b7f34                gcTrmCAPK
                0x00000000400b7f38                gcTrmExcepList
                0x00000000400b7f40                gcTrmDATA
                0x00000000400b7ca0                gcHex2Asc
                0x00000000400b7f3c                gcTrmRevocList
                0x00000000400b7cb0                tbl_IccDataList
 .rodata        0x00000000400b7f48      0x7ec ././main.o
 .rodata        0x00000000400b8734       0x14 ././reftable.o
                0x00000000400b8734                AppStrName
 .rodata        0x00000000400b8748     0x2ff4 ././prtmsg.o
                0x00000000400b8748                PRT_MSG_TBL1
 .rodata        0x00000000400bb73c      0x148 ././rtc.o
                0x00000000400bb784                Month12
                0x00000000400bb73c                DAY_STR_TBL
 .rodata        0x00000000400bb884      0xa70 ././apppos.o
                0x00000000400bbec4                ResponseCode_tbl
                0x00000000400bb884                TrxnName_tbl
                0x00000000400bbf30                REPRINTER_COUNT_TO_LOG_COUNT_TBL
 .rodata        0x00000000400bc2f4        0x4 ././rs232.o
 .rodata        0x00000000400bc2f8      0x788 ././printer.o
                0x00000000400bc2f8                PrintErrorMsg
 .rodata        0x00000000400bca80       0x50 ././utils.o
 .rodata        0x00000000400bcad0     0x17d8 ././key.o
                0x00000000400bcad0                tbl_MainService
 .rodata        0x00000000400be2a8     0x8610 ././lcdmsg.o
                0x00000000400be2a8                LCD_INITIAL_MSG_TBL
                0x00000000400be2c0                LCD_LOGO_MSG_TBL
                0x00000000400be2ec                LCD_MSG_TBL1
                0x00000000400c5c30                LCD_MSG_TBL4
 .rodata        0x00000000400c68b8      0x1f0 ././modem.o
                0x00000000400c68b8                DISCONNECT_TBL
 .rodata        0x00000000400c6aa8      0x2d8 ././flash.o
 .rodata        0x00000000400c6d80      0xf10 ././htmlutil.o
 .rodata        0x00000000400c7c90      0x264 ././hwtest.o
                0x00000000400c7ca4                SERIAL2_PORT_TBL
                0x00000000400c7c90                DOWNLOAD_PORT_TBL
 .rodata        0x00000000400c7ef4       0x24 ././sfontlib.o
 .rodata        0x00000000400c7f18     0x21ec ././gsm.o
                0x00000000400c838c                GPRS_WAVECOM_DISCONNECT_TBL
                0x00000000400c83a0                GPRS_CINTERION_DISCONNECT_TBL
                0x00000000400c7f18                tbl_ReqSequence
 *fill*         0x00000000400ca104        0x4 00
 .rodata        0x00000000400ca108       0x48 ../../lib/libc.a(strtod.o)
 .rodata.cst8   0x00000000400ca150       0x10 ../../lib/libc.a(strtod.o)
 .rodata        0x00000000400ca160      0x104 ../../lib/libc.a(ctype.o)
                0x00000000400ca160                _ctype
 *fill*         0x00000000400ca264        0x4 00
 .rodata.cst8   0x00000000400ca268        0x8 ../../lib/libc.a(ldexp.o)
                                         0x10 (size before relaxing)
 .rodata        0x00000000400ca270      0x114 ../../lib/libc.a(_doprnt.o)
 *fill*         0x00000000400ca384        0x4 00
 .rodata.cst8   0x00000000400ca388       0x18 ../../lib/libc.a(_doprnt.o)
                                         0x28 (size before relaxing)
 .rodata.str1.4
                0x00000000400ca3a0       0x1b ../../lib/libc.a(_doprnt.o)
                                         0x1c (size before relaxing)
 *fill*         0x00000000400ca3bb        0x1 00
 .rodata        0x00000000400ca3bc       0x14 ../../lib/libc.a(_iobdata.o)
                0x00000000400ca3bc                _io_funcs
 .rodata        0x00000000400ca3d0       0x14 ../../lib/libc.a(_iobstring.o)
                0x00000000400ca3d0                _io_strfuncs
 *fill*         0x00000000400ca3e4        0x4 00
 .rodata.cst8   0x00000000400ca3e8        0x8 ../../lib/libc.a(modf.o)
                                         0x10 (size before relaxing)
 .rodata        0x00000000400ca3f0       0xd4 ../../sdk/Bitel_Bitel.a(BITEL_TL.o)
                0x00000000400ca3f0                SCS_Directory
 .rodata        0x00000000400ca4c4      0x9d4 ../../sdk/Bitel_Bitel.a(CryptoLib.o)
                0x00000000400cac4c                PublicKey1Modulus
                0x00000000400cacd0                PublicKey1Checksum
                0x00000000400caccc                PublicKey1Exponent
                0x00000000400ca4c4                PUBLIC_KEY_SERV
                0x00000000400ca6c8                PRIVATE_KEY_SERV
 .rodata        0x00000000400cae98      0x2b8 ../../sdk/Bitel_Bitel.a(EMV_APP.o)
                0x00000000400cae98                gbcDFnamePSE
                0x00000000400caea8                gwcMandatoryDOL
 .rodata        0x00000000400cb150       0x40 ../../sdk/Bitel_Bitel.a(EMV_CAT.o)
                0x00000000400cb150                TrmTCC_C
                0x00000000400cb157                TrmTCC_T
                0x00000000400cb154                TrmTCC_X
                0x00000000400cb151                TrmTCC_Z
                0x00000000400cb155                TrmTCC_A
                0x00000000400cb153                TrmTCC_H
                0x00000000400cb152                TrmTCC_O
                0x00000000400cb158                TrmTCC_U
                0x00000000400cb156                TrmTCC_F
                0x00000000400cb159                TrmTCC_R
 .rodata        0x00000000400cb190        0x8 ../../sdk/Bitel_Bitel.a(ISO8583.o)
 .rodata        0x00000000400cb198       0x38 ../../sdk/Bitel_Bitel.a(KEYLIB.o)
 .rodata        0x00000000400cb1d0      0x110 ../../sdk/Bitel_Bitel.a(KEYPAD.o)
 .rodata        0x00000000400cb2e0       0x14 ../../sdk/Bitel_Bitel.a(LCDLIB.o)
 .rodata        0x00000000400cb2f4       0x3c ../../sdk/Bitel_Bitel.a(RTCLIB.o)
 .rodata        0x00000000400cb330       0x3c ../../sdk/Bitel_Bitel.a(RTCLIB2.o)
 .rodata        0x00000000400cb36c       0xd8 ../../sdk/Bitel_Bitel.a(gem_TL.o)
                0x00000000400cb36c                GemDirectory
 .rodata        0x00000000400cb444      0x328 ../../sdk/Bitel_Bitel.a(libc.o)
                0x00000000400cb444                ooctype
 .rodata        0x00000000400cb76c      0x774 ../../sdk/Bitel_Bitel.a(ppdrv.o)
                0x00000000400cb76c                PinCmd
 .rodata        0x00000000400cbee0       0x64 ../../sdk/Bitel_Bitel.a(r_enhanc.o)
                0x00000000400cbef4                PADDING
 .rodata        0x00000000400cbf44       0x20 ../../sdk/Bitel_Bitel.a(r_random.o)
 .rodata.str1.4
                0x00000000400cbf64        0xa ../../sdk/Bitel_Bitel.a(rand.o)
                                          0xc (size before relaxing)
 *fill*         0x00000000400cbf6e        0x2 00
 .rodata        0x00000000400cbf70        0x4 ../../sdk/Bitel_Bitel.a(shsc.o)
 .rodata        0x00000000400cbf74      0x328 ../../sdk/Bitel_Bitel.a(DES_ECB.o)
 *fill*         0x00000000400cc29c        0x4 00
 .rodata        0x00000000400cc2a0      0x298 ../../sdk/Bitel_Bitel.a(FRMWRI.o)
 .rodata        0x00000000400cc538      0x8e0 ../../sdk/Bitel_Bitel.a(desc.o)
                0x00000000400cc618                Spbox
 .rodata        0x00000000400cce18       0x60 ../../sdk/Bitel_Bitel.a(libEncryption.o)
 .rodata        0x00000000400cce78      0x100 ../../sdk/Bitel_Bitel.a(md2c.o)
 .rodata        0x00000000400ccf78     0x1010 ../../sdk/Bitel_Bitel.a(prime.o)
 .rodata        0x00000000400cdf88       0xc4 ../../sdk/Bitel_Bitel.a(r_encode.o)
                0x00000000400ce04c                _etext = .
                0x00000000400ce04c                PROVIDE (etext, .)

.text.strcat    0x00000000400ce04c       0x9c
 .text.strcat   0x00000000400ce04c       0x9c ../../lib/libc.a(strcat.o)
                0x00000000400ce04c                strcat

.text.strncmp   0x00000000400ce0e8       0xd8
 .text.strncmp  0x00000000400ce0e8       0xd8 ../../lib/libc.a(strncmp.o)
                0x00000000400ce0e8                strncmp

.text.strncpy   0x00000000400ce1c0       0xd0
 .text.strncpy  0x00000000400ce1c0       0xd0 ../../lib/libc.a(strncpy.o)
                0x00000000400ce1c0                strncpy

.text.strchr    0x00000000400ce290       0x90
 .text.strchr   0x00000000400ce290       0x90 ../../lib/libc.a(strchr.o)
                0x00000000400ce290                strchr

.text.strstr    0x00000000400ce320       0x54
 .text.strstr   0x00000000400ce320       0x54 ../../lib/libc.a(strstr.o)
                0x00000000400ce320                strstr

.text.tolower   0x00000000400ce374       0x20
 .text.tolower  0x00000000400ce374       0x20 ../../lib/libc.a(ctypef.o)
                0x00000000400ce374                tolower

.text.toupper   0x00000000400ce394       0x20
 .text.toupper  0x00000000400ce394       0x20 ../../lib/libc.a(ctypef.o)
                0x00000000400ce394                toupper

.text.isalnum   0x00000000400ce3b4       0x18
 .text.isalnum  0x00000000400ce3b4       0x18 ../../lib/libc.a(ctypef.o)
                0x00000000400ce3b4                isalnum

.text.isalpha   0x00000000400ce3cc       0x18
 .text.isalpha  0x00000000400ce3cc       0x18 ../../lib/libc.a(ctypef.o)
                0x00000000400ce3cc                isalpha

.text.isascii   0x00000000400ce3e4        0x8
 .text.isascii  0x00000000400ce3e4        0x8 ../../lib/libc.a(ctypef.o)
                0x00000000400ce3e4                isascii

.text.iscntrl   0x00000000400ce3ec       0x18
 .text.iscntrl  0x00000000400ce3ec       0x18 ../../lib/libc.a(ctypef.o)
                0x00000000400ce3ec                iscntrl

.text.isdigit   0x00000000400ce404       0x18
 .text.isdigit  0x00000000400ce404       0x18 ../../lib/libc.a(ctypef.o)
                0x00000000400ce404                isdigit

.text.isgraph   0x00000000400ce41c       0x18
 .text.isgraph  0x00000000400ce41c       0x18 ../../lib/libc.a(ctypef.o)
                0x00000000400ce41c                isgraph

.text.islower   0x00000000400ce434       0x18
 .text.islower  0x00000000400ce434       0x18 ../../lib/libc.a(ctypef.o)
                0x00000000400ce434                islower

.text.isprint   0x00000000400ce44c       0x18
 .text.isprint  0x00000000400ce44c       0x18 ../../lib/libc.a(ctypef.o)
                0x00000000400ce44c                isprint

.text.ispunct   0x00000000400ce464       0x18
 .text.ispunct  0x00000000400ce464       0x18 ../../lib/libc.a(ctypef.o)
                0x00000000400ce464                ispunct

.text.isspace   0x00000000400ce47c       0x18
 .text.isspace  0x00000000400ce47c       0x18 ../../lib/libc.a(ctypef.o)
                0x00000000400ce47c                isspace

.text.isupper   0x00000000400ce494       0x18
 .text.isupper  0x00000000400ce494       0x18 ../../lib/libc.a(ctypef.o)
                0x00000000400ce494                isupper

.text.isxdigit  0x00000000400ce4ac       0x18
 .text.isxdigit
                0x00000000400ce4ac       0x18 ../../lib/libc.a(ctypef.o)
                0x00000000400ce4ac                isxdigit

.text.toascii   0x00000000400ce4c4        0x8
 .text.toascii  0x00000000400ce4c4        0x8 ../../lib/libc.a(ctypef.o)
                0x00000000400ce4c4                toascii

.text._tolower  0x00000000400ce4cc        0x8
 .text._tolower
                0x00000000400ce4cc        0x8 ../../lib/libc.a(ctypef.o)
                0x00000000400ce4cc                _tolower

.text._toupper  0x00000000400ce4d4        0x8
 .text._toupper
                0x00000000400ce4d4        0x8 ../../lib/libc.a(ctypef.o)
                0x00000000400ce4d4                _toupper

.text.atof      0x00000000400ce4dc       0x1c
 .text.atof     0x00000000400ce4dc       0x1c ../../lib/libc.a(atof.o)
                0x00000000400ce4dc                atof

.text.atol      0x00000000400ce4f8       0x20
 .text.atol     0x00000000400ce4f8       0x20 ../../lib/libc.a(atol.o)
                0x00000000400ce4f8                atol

.text.atoi      0x00000000400ce518       0x20
 .text.atoi     0x00000000400ce518       0x20 ../../lib/libc.a(atoi.o)
                0x00000000400ce518                atoi

.text.strtol    0x00000000400ce538      0x244
 .text.strtol   0x00000000400ce538      0x244 ../../lib/libc.a(strtol.o)
                0x00000000400ce538                strtol

.text.__errno_pointer
                0x00000000400ce77c       0x70
 .text.__errno_pointer
                0x00000000400ce77c       0x38 ../../lib/libc.a(strtod.o)
 .text.__errno_pointer
                0x00000000400ce7b4       0x38 ../../lib/libc.a(_iobfuncs.o)

.text.strtod    0x00000000400ce7ec      0x308
 .text.strtod   0x00000000400ce7ec      0x308 ../../lib/libc.a(strtod.o)
                0x00000000400ce7ec                strtod

.text.__snprintf
                0x00000000400ceaf4       0x20
 .text.__snprintf
                0x00000000400ceaf4       0x20 ../../lib/libc.a(sprintf.o)
                0x00000000400ceaf4                __snprintf

.text.sprintf   0x00000000400ceb14       0x34
 .text.sprintf  0x00000000400ceb14       0x34 ../../lib/libc.a(sprintf.o)
                0x00000000400ceb14                sprintf

.text.__vsnprintf
                0x00000000400ceb48       0x64
 .text.__vsnprintf
                0x00000000400ceb48       0x64 ../../lib/libc.a(vsprintf.o)
                0x00000000400ceb48                __vsnprintf

.text.vsprintf  0x00000000400cebac       0x2c
 .text.vsprintf
                0x00000000400cebac       0x2c ../../lib/libc.a(vsprintf.o)
                0x00000000400cebac                vsprintf

.text.isnan     0x00000000400cebd8       0x2c
 .text.isnan    0x00000000400cebd8       0x2c ../../lib/libc.a(isinf.o)
                0x00000000400cebd8                isnan

.text.isinf     0x00000000400cec04       0x2c
 .text.isinf    0x00000000400cec04       0x2c ../../lib/libc.a(isinf.o)
                0x00000000400cec04                isinf

.text.ldexp     0x00000000400cec30      0x13c
 .text.ldexp    0x00000000400cec30      0x13c ../../lib/libc.a(ldexp.o)
                0x00000000400cec30                ldexp

.text.__sputn   0x00000000400ced6c       0xb8
 .text.__sputn  0x00000000400ced6c       0xb8 ../../lib/libc.a(_doprnt.o)

.text.repl      0x00000000400cee24       0x74
 .text.repl     0x00000000400cee24       0x74 ../../lib/libc.a(_doprnt.o)

.text._outcnvrt
                0x00000000400cee98       0xe0
 .text._outcnvrt
                0x00000000400cee98       0xe0 ../../lib/libc.a(_doprnt.o)

.text.rounded   0x00000000400cef78       0xfc
 .text.rounded  0x00000000400cef78       0xfc ../../lib/libc.a(_doprnt.o)

.text.vfprintf  0x00000000400cf074     0x1284
 .text.vfprintf
                0x00000000400cf074     0x1284 ../../lib/libc.a(_doprnt.o)
                0x00000000400cf074                vfprintf

.text.vprintf   0x00000000400d02f8       0x30
 .text.vprintf  0x00000000400d02f8       0x30 ../../lib/libc.a(_doprnt.o)
                0x00000000400d02f8                vprintf

.text._fflush_simple
                0x00000000400d0328       0x6c
 .text._fflush_simple
                0x00000000400d0328       0x6c ../../lib/libc.a(_iobfuncs.o)
                0x00000000400d0328                _fflush_simple

.text._filbuf_simple
                0x00000000400d0394       0x80
 .text._filbuf_simple
                0x00000000400d0394       0x80 ../../lib/libc.a(_iobfuncs.o)
                0x00000000400d0394                _filbuf_simple

.text._flsbuf_simple
                0x00000000400d0414       0xdc
 .text._flsbuf_simple
                0x00000000400d0414       0xdc ../../lib/libc.a(_iobfuncs.o)
                0x00000000400d0414                _flsbuf_simple

.text._fwrite_simple
                0x00000000400d04f0       0xa4
 .text._fwrite_simple
                0x00000000400d04f0       0xa4 ../../lib/libc.a(_iobfuncs.o)
                0x00000000400d04f0                _fwrite_simple

.text._fsync_simple
                0x00000000400d0594       0x44
 .text._fsync_simple
                0x00000000400d0594       0x44 ../../lib/libc.a(_iobfuncs.o)
                0x00000000400d0594                _fsync_simple

.text._filbuf_string
                0x00000000400d05d8        0x8
 .text._filbuf_string
                0x00000000400d05d8        0x8 ../../lib/libc.a(_iobstring.o)

.text._flsbuf_string
                0x00000000400d05e0        0x8
 .text._flsbuf_string
                0x00000000400d05e0        0x8 ../../lib/libc.a(_iobstring.o)

.text._fflush_string
                0x00000000400d05e8        0x8
 .text._fflush_string
                0x00000000400d05e8        0x8 ../../lib/libc.a(_iobstring.o)

.text._fwrite_string
                0x00000000400d05f0        0x8
 .text._fwrite_string
                0x00000000400d05f0        0x8 ../../lib/libc.a(_iobstring.o)

.text._fsync_string
                0x00000000400d05f8        0x8
 .text._fsync_string
                0x00000000400d05f8        0x8 ../../lib/libc.a(_iobstring.o)

.text.flock_init
                0x00000000400d0600       0x20
 .text.flock_init
                0x00000000400d0600       0x20 ../../lib/libc.a(flock.o)

.text.fpgetlock
                0x00000000400d0620       0x7c
 .text.fpgetlock
                0x00000000400d0620       0x7c ../../lib/libc.a(flock.o)

.text.flockfile
                0x00000000400d069c       0x2c
 .text.flockfile
                0x00000000400d069c       0x2c ../../lib/libc.a(flock.o)
                0x00000000400d069c                flockfile

.text.ftrylockfile
                0x00000000400d06c8       0x38
 .text.ftrylockfile
                0x00000000400d06c8       0x38 ../../lib/libc.a(flock.o)
                0x00000000400d06c8                ftrylockfile

.text.funlockfile
                0x00000000400d0700       0x28
 .text.funlockfile
                0x00000000400d0700       0x28 ../../lib/libc.a(flock.o)
                0x00000000400d0700                funlockfile

.text.flock_cleanup
                0x00000000400d0728       0x2c
 .text.flock_cleanup
                0x00000000400d0728       0x2c ../../lib/libc.a(flock.o)

.text.flock_dtor
                0x00000000400d0754       0x20
 .text.flock_dtor
                0x00000000400d0754       0x20 ../../lib/libc.a(flock.o)

.text._flockfree
                0x00000000400d0774       0x2c
 .text._flockfree
                0x00000000400d0774       0x2c ../../lib/libc.a(flock.o)
                0x00000000400d0774                _flockfree

.text.modf      0x00000000400d07a0       0x70
 .text.modf     0x00000000400d07a0       0x70 ../../lib/libc.a(modf.o)
                0x00000000400d07a0                modf

.text._fwalk    0x00000000400d0810       0x94
 .text._fwalk   0x00000000400d0810       0x94 ../../lib/libc.a(_fwalk.o)
                0x00000000400d0810                _fwalk

.text.rand_r    0x00000000400d08a4       0x28
 .text.rand_r   0x00000000400d08a4       0x28 ../../sdk/Bitel_Bitel.a(rand.o)
                0x00000000400d08a4                rand_r

.text.rand      0x00000000400d08cc       0x4c
 .text.rand     0x00000000400d08cc       0x4c ../../sdk/Bitel_Bitel.a(rand.o)
                0x00000000400d08cc                rand

.text.srand     0x00000000400d0918       0x44
 .text.srand    0x00000000400d0918       0x44 ../../sdk/Bitel_Bitel.a(rand.o)
                0x00000000400d0918                srand

.text.putc_unlocked
                0x00000000400d095c       0xac
 .text.putc_unlocked
                0x00000000400d095c       0xac ../../sdk/Bitel_Bitel.a(fputc.o)
                0x00000000400d095c                putc_unlocked

.text.fputc     0x00000000400d0a08       0x50
 .text.fputc    0x00000000400d0a08       0x50 ../../sdk/Bitel_Bitel.a(fputc.o)
                0x00000000400d0a08                fputc

.text.putc      0x00000000400d0a58       0x1c
 .text.putc     0x00000000400d0a58       0x1c ../../sdk/Bitel_Bitel.a(fputc.o)
                0x00000000400d0a58                putc

.text.putchar   0x00000000400d0a74       0x24
 .text.putchar  0x00000000400d0a74       0x24 ../../sdk/Bitel_Bitel.a(fputc.o)
                0x00000000400d0a74                putchar

.flash.buffer   0x0000000050000000    0x10000
                0x0000000050010000                . = (. + 0x10000)
 *fill*         0x0000000050000000    0x10000 00

.com.text       0x0000000050010000        0x0
                0x0000000050010000                __com_ram_start = .
 *(.text.ram)
                0x0000000050010000                __com_ram_end = .
                0x0000000050010000                __com_rom_start = LOADADDR (.com.text)

.lib.bss        0x0000000050010000    0x16ac8
                0x0000000050010000                __lib_bss_start = .
 *(.lib.ram)
 .lib.ram       0x0000000050010000    0x16ac4 ../../sdk/Bitel_Bitel.a(asmutil.o)
                0x0000000050026a0b                GRAZERO
                0x00000000500269d6                STBLIMIT
                0x00000000500269d5                KEYFWDD
                0x0000000050026a1c                KSPOINT
                0x00000000500269a6                CRDEPNT3
                0x0000000050026a1f                INTSND_STS
                0x0000000050026720                INPUT_COUNT
                0x0000000050010060                DOT_BUFFER1
                0x00000000500269ee                PRT3IN_FLG
                0x00000000500269c9                BUZCTL
                0x0000000050026370                CURRENT_TIME
                0x0000000050013320                ATTB_BUFFER4
                0x00000000500265ec                hal_interrupt_handlers
                0x00000000500266f4                COM0T_IPOINT
                0x0000000050026a19                ADDISP
                0x000000005002669c                PRTFONTADDR
                0x00000000500125a0                ATTB_BUFFER1
                0x0000000050026a34                LCD_FUNC
                0x0000000050026a0d                LINESPACE
                0x00000000500113a0                CHAR_BUFFER2
                0x0000000050024854                _COMRX_TEMP
                0x00000000500261b8                CARDBIT3
                0x0000000050026994                CARDNCOUNT3
                0x00000000500269fa                PRT_COUNT
                0x000000005002676c                timer2back
                0x00000000500269eb                PRINTER_STS
                0x00000000500269e4                GRAPHICS_CTL
                0x0000000050026548                GRADAT
                0x0000000050026996                ADBATR
                0x00000000500269ff                PRINT_MODE
                0x0000000050026a38                params
                0x0000000050024820                MULTI_ORDER
                0x0000000050026394                KEY_BUFFER
                0x00000000500269e9                PRINTER_ERR
                0x00000000500269e8                PRINTER_FLG
                0x00000000500269cc                LCDBLKC
                0x00000000500269f4                LINE_FEED1
                0x0000000050026a2f                CL_ENABLED
                0x00000000500269d1                SERPNT
                0x0000000050015c20                COM0T_BUFFER
                0x000000005002698c                ADCONR
                0x00000000500269e0                DOTGRA2
                0x00000000500269b0                HAVEPRTFONT2
                0x0000000050026a21                INTSND_BIT
                0x00000000500269cd                LCDCURP
                0x00000000500269a3                CRDDPNT2
                0x0000000050026a18                SENSORONCE
                0x00000000500266bc                SAVECOUNT
                0x000000005001fc20                COM3R_BUFFER
                0x00000000500266d8                COM3T_IPOINT
                0x0000000050026694                FLASH_ADDRESS
                0x00000000500269ec                PRINTER_WRK
                0x00000000500266b0                LONGTIMER
                0x00000000500269be                DSPCFLG
                0x00000000500264f0                TELNUMBER
                0x0000000050021c20                COM3T_BUFFER
                0x0000000050026aac                RAM_BT_flash_unprotect
                0x00000000500269b8                TB05WRK
                0x00000000500269af                HAVELCDFONT2
                0x0000000050026774                ENDMARKLC
                0x0000000050026710                COM1R_COUNT
                0x0000000050026a54                hal_scs_device_number
                0x000000005002698e                NOPAPERLIMIT
                0x00000000500269c5                KEY_WPOINT
                0x0000000050026ab4                RAM_BT_flash_get_info
                0x0000000050026688                DWFONTADDR
                0x00000000500269cf                GRA_MOVE
                0x00000000500266f0                COM0R_IPOINT
                0x000000005002677c                CrcTable
                0x000000005002699e                MTFINALERR
                0x00000000500269f3                LINE_FEED
                0x00000000500269d3                GEMRXD
                0x00000000500263d8                TEXT_KEEP
                0x00000000500269ef                LFORDER
                0x0000000050026a02                ADCTL
                0x000000005001dc20                COM2T_BUFFER
                0x00000000500266c4                COM2R_IPOINT
                0x00000000500264b0                AHNTEMP
                0x00000000500269a0                CRDEPNT
                0x00000000500269f6                CR_NEXT_LFWRK
                0x00000000500266a8                LCDFONTADDR2
                0x00000000500269d2                TXCTL
                0x0000000050026a24                PRT_VS_BATT_COMP
                0x00000000500269c1                KJOHAP1
                0x0000000050026a13                BACKTIME
                0x0000000050026a26                MULTI_STEP
                0x0000000050026064                PRT_EBUFFER
                0x000000005002699a                MTTIMER
                0x0000000050026738                TIME_BASE10
                0x0000000050026460                SERBUF
                0x00000000500269c4                KEY_RPOINT
                0x0000000050026054                CHAR_FILL1
                0x00000000500269fe                STBOUTDATA
                0x0000000050026a16                TXDELAYCH
                0x00000000500269b1                PRIVKEY
                0x00000000500269ce                SCITX
                0x00000000500266b8                BUFFERSIZE
                0x0000000050026680                SAVE_SOURCE
                0x0000000050026ab8                RAM_BT_flash_init
                0x0000000050026a10                PPROTEC
                0x0000000050011ca0                CHAR_BUFFER4
                0x00000000500269db                INTPINPADPNT
                0x00000000500269f2                OR_DATA
                0x0000000050026734                STIME_BASE10
                0x00000000500269da                INTPINPADINT
                0x0000000050026a23                INTSND_DATA
                0x00000000500266a4                PRTFONTADDR2
                0x00000000500269aa                CBITPNT2
                0x00000000500269bf                CURCFLG
                0x0000000050010000                DSPBUF0
                0x0000000050026730                GRAWRK
                0x00000000500269d7                FLASHFUNCTION
                0x0000000050026a25                MULTI_EXIST
                0x0000000050026674                FLASHLIMIT
                0x0000000050026a2e                SPIIRQED
                0x000000005002670c                COM1T_IPOINT
                0x00000000500269a4                CRDEPNT2
                0x0000000050026718                COM1R_MPOINT
                0x0000000050026764                SUPADDRESS
                0x0000000050026a08                GRAOFFS
                0x00000000500269f8                PRT_RPOINT
                0x000000005002699c                CRDSETUP
                0x00000000500269b9                V0SAVE
                0x00000000500269b2                KSTEP
                0x0000000050026a09                GRASTBK
                0x00000000500269a1                CBITPNT
                0x00000000500269e3                GRAXWRK
                0x0000000050026754                MODEMTINC
                0x0000000050026728                SC_INPUTP
                0x0000000050026998                LOW_BATT_DELAY
                0x00000000500266d0                COM2R_MPOINT
                0x00000000500269ac                CRDCFLG
                0x00000000500269f0                INTTIME_INDEX
                0x0000000050023c20                SC_OUTPUT
                0x0000000050026a06                PRTPREF
                0x0000000050012a20                ATTB_BUFFER2
                0x0000000050011820                CHAR_BUFFER3
                0x00000000500262c8                CARDRDB3
                0x0000000050026118                CARDBIT2
                0x0000000050026a0c                BATTOFFS
                0x00000000500269c3                TB10WRK
                0x00000000500269c0                KJOHAP0
                0x0000000050026a04                INTTIMEI
                0x0000000050026768                SEXISTADDRESS
                0x0000000050026988                GRAYWID
                0x000000005002672c                GRA_TIME
                0x0000000050026078                CARDBIT
                0x0000000050026690                MSG_1TBL
                0x00000000500269a5                CRDDPNT3
                0x00000000500269b5                EDITMIN
                0x00000000500264e0                PWR_SAV_STS
                0x0000000050026a28                MULTI_TIMEDELAY
                0x000000005002674c                MON_TIME
                0x00000000500269d9                PRTMODE
                0x00000000500266dc                COM3R_IPOINT
                0x00000000500269e6                PRT_PAGE
                0x00000000500269c8                TB20WRK
                0x000000005002698a                HEAD_TP
                0x0000000050017c20                COM1R_BUFFER
                0x0000000050026a30                DRAM_RUNNING
                0x0000000050026a2d                SPIINITED
                0x0000000050026aa8                RAM_BT_flash_erase
                0x0000000050026a03                ADFINR
                0x00000000500269e7                PRT_LINE
                0x0000000050026a01                ADCOUNT
                0x00000000500269de                RLCDCONT
                0x0000000050026980                PORTSAVE
                0x00000000500269b7                LCDHW
                0x00000000500266e0                COM3R_COUNT
                0x0000000050026ac0                RAM_memcmp
                0x0000000050026758                MODEMTDEC
                0x00000000500269a8                CBITWRK
                0x000000005002671c                COM1T_MPOINT
                0x00000000500269d4                SYNCCKP
                0x00000000500265dc                RANDOM_NUMBER
                0x00000000500266ec                COM3T_MPOINT
                0x00000000500269c6                KEY_COUNT
                0x00000000500269dd                FLOWMOD
                0x00000000500263c8                RTC_BUFFER
                0x00000000500269b6                EDITMAX
                0x0000000050024020                MULTI_STACK
                0x0000000050010010                DSPBUF1
                0x0000000050026a15                IDLEMODE
                0x00000000500269b3                EDITCUR
                0x0000000050026a14                TBSECWRK
                0x000000005002668c                MSG_4TBL
                0x0000000050026a05                INTTIMES
                0x0000000050026704                COM0T_MPOINT
                0x0000000050026a07                GRADENS
                0x0000000050026a00                PRINTWAIT
                0x000000005002667c                GRAADDR
                0x0000000050026a11                NO_PAPER_FEED
                0x00000000500269bc                DSPPCNT
                0x0000000050026538                KDVAL
                0x00000000500269fb                HAVEDWFONT
                0x0000000050026714                COM1T_COUNT
                0x0000000050026750                APPCMD
                0x00000000500269e2                GRAXWID
                0x00000000500269d8                LCDMODE
                0x0000000050026a17                TXDELAYCH2
                0x000000005002605c                STBCNT
                0x0000000050012ea0                ATTB_BUFFER3
                0x00000000500269f1                PRTSTS
                0x00000000500269ad                HAVELCDFONT
                0x0000000050026670                INTTIME
                0x00000000500269bd                DSPLINE
                0x0000000050010f20                CHAR_BUFFER1
                0x0000000050026744                PRTHOLDTIME
                0x00000000500264d0                INTPINPADBUF
                0x00000000500269cb                BUZINDEX
                0x00000000500266a0                LCDFONTADDR
                0x0000000050026a1b                KEYOUTF
                0x00000000500266c8                COM2R_COUNT
                0x00000000500265c0                TPHDINTSAVE
                0x0000000050026724                SC_POINT
                0x0000000050026560                RAMREFTABLE
                0x00000000500266fc                COM0T_COUNT
                0x0000000050012120                CHAR_BUFFER5
                0x0000000050023e20                SC_INPUT
                0x00000000500266b4                GET1MTIMER
                0x0000000050026380                PIN_MESSAGE
                0x0000000050026a2a                MULTI_MODE
                0x0000000050026074                FLASH_BUFFER
                0x00000000500269dc                INTPINPADACT
                0x0000000050026a20                INTSND_CNT
                0x00000000500269ed                PRINTER_FNT
                0x000000005002699f                CRDDPNT
                0x0000000050026ab0                RAM_BT_flash_shutdown
                0x00000000500269a7                CBITPNT3
                0x0000000050026530                KIVAL
                0x00000000500269c7                TB05LCD_WRK
                0x00000000500269b4                EDITMOD
                0x00000000500266d4                COM2T_MPOINT
                0x000000005002673c                TIME_BASE0
                0x0000000050026a0f                ACCSTEP
                0x000000005002675c                TXDELAYTIME
                0x0000000050013c20                COM0R_BUFFER
                0x0000000050026a0e                LINESPACEW
                0x0000000050026748                PINPAD_TIME
                0x0000000050026458                RS232_STATUS
                0x0000000050026760                TXDELAYTIME2
                0x0000000050026708                COM1R_IPOINT
                0x00000000500269fd                LFCOUNT
                0x0000000050026338                CARDRDB2
                0x00000000500266cc                COM2T_COUNT
                0x0000000050019c20                COM1T_BUFFER
                0x0000000050026418                EDIT_BUFFER
                0x0000000050026a12                PPRORUN
                0x00000000500269ca                BUZWRK
                0x00000000500266c0                COM2T_IPOINT
                0x0000000050026a0a                GRASTBW
                0x00000000500269e5                PRINTING_NEED
                0x00000000500269c2                LCDOUTR
                0x00000000500269ae                HAVEPRTFONT
                0x0000000050026a31                FOMASTATUS
                0x00000000500269fc                PRT_HOLD
                0x0000000050026700                COM0R_MPOINT
                0x00000000500269e1                GRASPOS
                0x0000000050026992                CARDNCOUNT2
                0x0000000050026a1a                ICON_DIS_NEED
                0x00000000500107c0                DOT_BUFFER2
                0x0000000050026a1d                KEYSDEFINE
                0x0000000050026684                SAVE_DIST
                0x00000000500263b4                RTCCLKSAVE
                0x000000005001bc20                COM2R_BUFFER
                0x00000000500269d0                TEXT_COUNT
                0x00000000500269ab                CBITWRK2
                0x00000000500269a9                CBITWRK3
                0x00000000500269f5                LINE_FEED2
                0x000000005002699d                UNDERCRD
                0x0000000050010040                FONTBUF
                0x000000005002699b                MTCOUNT
                0x0000000050026abc                RAM_memcpy
                0x00000000500266e4                COM3T_COUNT
                0x00000000500269f9                PRT_WPOINT
                0x00000000500266ac                GRAFONTADDR
                0x00000000500266f8                COM0R_COUNT
                0x0000000050026778                ENDMARKAFTER
                0x0000000050026a29                MULTI_STACKSIZE
                0x0000000050026a1e                LOW_BATT_DISP
                0x0000000050025454                _COMTX_TEMP
                0x0000000050026258                CARDRDB
                0x0000000050024834                TASK_SEQ
                0x0000000050024830                MULTI_STACKPOINT
                0x0000000050026a2b                MULTIUSED
                0x0000000050010020                DSPBUF2
                0x00000000500266e8                COM3R_MPOINT
                0x0000000050026698                FLASH_WCOUNT
                0x0000000050010030                DSPBUF3
                0x000000005002697c                genPoly
                0x00000000500263b8                L2_BUFFER
                0x0000000050026540                KEYOUT
                0x0000000050026a22                INTSND_UNDER
                0x0000000050026990                CARDNCOUNT
                0x00000000500269ba                CURSORP
                0x00000000500269bb                DSPPBUF
                0x0000000050026a27                MULTI_PRIV
                0x00000000500269ea                PRINTER_CTL
                0x00000000500269a2                CRDBCNT2
                0x000000005002666c                PDOTLAST
                0x0000000050026770                PSEEKLIMIT
                0x0000000050026a2c                CL_INTERFACE
                0x0000000050026740                TIME_BASE1
                0x00000000500269df                DOTGRA1
                0x00000000500269f7                FORMFEED
                0x00000000500137a0                ATTB_BUFFER5
                0x0000000050026678                NEWGRAFONTADDR
 .lib.ram       0x0000000050026ac4        0x4 ../../sdk/Bitel_Bitel.a(prtutil.o)
                0x0000000050026ac4                PRT_FUNC

.hal.heap       0x0000000050026ac8     0x2000
                0x0000000050026ac8                __hal_heap_start = .
                0x0000000050028ac8                . = (. + 0x2000)
 *fill*         0x0000000050026ac8     0x2000 00
                0x0000000050028ac8                __hal_heap_end = .

.emv.bss        0x0000000050028ac8     0x2a88
 hal*(.bss COMMON .sbss .scommon)
 .bss           0x0000000050028ac8        0xc ../../sdk/Bitel_Bitel.a(hal_apm.o)
 .bss           0x0000000050028ad4       0x50 ../../sdk/Bitel_Bitel.a(hal_flash.o)
 .scommon       0x0000000050028b24       0x14 ../../sdk/Bitel_Bitel.a(hal_flash.o)
                0x0000000050028b24                RAM_hal_flash_erase
                0x0000000050028b28                RAM_hal_flash_unprotect
                0x0000000050028b2c                RAM_hal_flash_get_info
                0x0000000050028b30                RAM_hal_flash_shutdown
                0x0000000050028b34                RAM_hal_flash_init
 COMMON         0x0000000050028b38      0x2b8 ../../sdk/Bitel_Bitel.a(hal_scs_dev.o)
                0x0000000050028b38                hal_scs_dev
 .scommon       0x0000000050028df0        0x1 ../../sdk/Bitel_Bitel.a(hal_scs_vsr_t1_block.o)
                0x0000000050028df0                ucBGTCounterReception
 *fill*         0x0000000050028df1        0x3 00
 .bss           0x0000000050028df4        0x4 ../../sdk/Bitel_Bitel.a(hal_sys_alloc.o)
 .scommon       0x0000000050028df8        0x8 ../../sdk/Bitel_Bitel.a(hal_sys_alloc.o)
                0x0000000050028df8                hal_sys_pool_head
                0x0000000050028dfc                hal_sys_pool_top
 COMMON         0x0000000050028e00       0x20 ../../sdk/Bitel_Bitel.a(hal_timer.o)
                0x0000000050028e00                hal_timer_initialized
                0x0000000050028e10                hal_timer_vsr
 .scommon       0x0000000050028e20        0x4 ../../sdk/Bitel_Bitel.a(hal_timer.o)
                0x0000000050028e20                hal_timer_vsr_count
 .bss           0x0000000050028e24       0x20 ../../sdk/Bitel_Bitel.a(hal_i2c.o)
 emv*(.sbss .scommon .bss COMMON)
 .bss           0x0000000050028e44     0x2030 ../../sdk/Bitel_Bitel.a(emv_APDU.o)
                0x0000000050028e46                gem_Protocol
                0x0000000050028e5c                giRspBufLen
                0x0000000050028e6c                giTrmDATAsize
                0x0000000050028e68                pgcTrmDATA
                0x0000000050028e58                pgbRspBuf
                0x0000000050028e63                gbTagLength
                0x0000000050028e47                gem_AUXcmmd
                0x0000000050028e64                gbNthMatch
                0x0000000050028e60                gwSW1SW2
                0x0000000050028e50                pgbAppBuf
                0x0000000050028e70                giTrmCAPKsize
                0x0000000050028e4c                gem_BaudRate
                0x0000000050028e62                gbTagFormat
                0x0000000050028e54                giAppBufLen
                0x0000000050028e48                gem_BaudFlag
                0x0000000050028e65                gbGemCoR15
 COMMON         0x000000005002ae74      0x648 ../../sdk/Bitel_Bitel.a(emv_APDU.o)
                0x000000005002ae74                gbScBuf
                0x000000005002ae94                gbATRdata
                0x000000005002aebc                gbDestBuf
                0x000000005002b0bc                gbTempBuf
                0x000000005002b2bc                gbSignBuf
 .scommon       0x000000005002b4bc       0x10 ../../sdk/Bitel_Bitel.a(emv_APDU.o)
                0x000000005002b4bc                giScLen
                0x000000005002b4c0                pgsSC_STAT
                0x000000005002b4c4                gsSC_STAT
                0x000000005002b4cb                gem_RS232open
 .scommon       0x000000005002b4cc        0x4 ../../sdk/Bitel_Bitel.a(emv_init.o)
                0x000000005002b4cc                first_emv_init
 COMMON         0x000000005002b4d0       0x18 ../../sdk/Bitel_Bitel.a(emv_init.o)
                0x000000005002b4d0                emv_handles
 .bss           0x000000005002b4e8       0x3c ../../sdk/Bitel_Bitel.a(emv_power_up.o)
 .scommon       0x000000005002b524        0x1 ../../sdk/Bitel_Bitel.a(emv_power_up.o)
                0x000000005002b524                ApplicableValues
 sc_at83*(.bss COMMON .sbss .scommon)
 *fill*         0x000000005002b525        0x3 00
 .scommon       0x000000005002b528       0x10 ../../sdk/Bitel_Bitel.a(sc_at83c26.o)
                0x000000005002b528                allready_powered_down
                0x000000005002b52c                at83c26_selected_device
                0x000000005002b530                first_dcdcb_start
                0x000000005002b534                first_init
 COMMON         0x000000005002b538       0x18 ../../sdk/Bitel_Bitel.a(sc_at83c26.o)
                0x000000005002b538                atmel_sc_voltage
 *(SORT(.sys_table*emv*))
 *(SORT(.sys_table*))
                0x000000005002b550                __lib_bss_end = .

.usr.sbss       0x000000005002b550      0x330
                0x000000005002b550                __usr_bss_start = .
                0x000000005002b550                _fbss = .
 *(.sbss .scommon)
 .scommon       0x000000005002b550       0x20 ././tmsdown.o
                0x000000005002b550                lTMSAutoDownloadTried1SECTimer
                0x000000005002b554                ucAutoTMSDownloadFirstFlag
                0x000000005002b556                sTMSDownloadSectorNo
                0x000000005002b558                ucAutoTMSDownloadDateFlag
                0x000000005002b55c                lTMSDownlaodDataPacketMaxBytes
                0x000000005002b560                ucAutoTMSDownloadTimeFlag
                0x000000005002b562                sTMSDownlaodDataPacketSize
                0x000000005002b564                ucTMSDownloadRetryCnt
                0x000000005002b566                sTMSDownlaodClusterNoPerSector
                0x000000005002b568                usTMSDownload10MSTimer
                0x000000005002b56a                ucTMSDownloadFlag
                0x000000005002b56c                iTMSDownInfoBlockIndex
 .scommon       0x000000005002b570       0x44 ././scard.o
                0x000000005002b570                TrmTCC
                0x000000005002b574                TrmAcquirerID
                0x000000005002b57a                TrmType
                0x000000005002b57c                TrmCapaAdditional
                0x000000005002b581                gbExtPinPadFound
                0x000000005002b584                TrmCapa
                0x000000005002b588                gSysTimer
                0x000000005002b58c                POSSerialNr
                0x000000005002b594                TraceNr
                0x000000005002b598                SvcCode
                0x000000005002b59c                TrmMCC
                0x000000005002b59e                TrmForceOnLine
                0x000000005002b59f                TrmL2TTAmode
                0x000000005002b5a0                gbPinBlock
                0x000000005002b5a8                giPinTryCnt
                0x000000005002b5ac                CardAcceptorTerminalID
 .scommon       0x000000005002b5b4       0x16 ././main.o
                0x000000005002b5b4                sz5LCDDisplayProgramVersion
                0x000000005002b5bc                sz6BIOSVersion
                0x000000005002b5c4                iModelName
                0x000000005002b5c8                ucLangFlag
                0x000000005002b5c9                ucCurrencyExp
 *fill*         0x000000005002b5ca        0x2 00
 .scommon       0x000000005002b5cc       0x12 ././rtc.o
                0x000000005002b5cc                usColonOn1MSTimer
                0x000000005002b5ce                ucTempSec
                0x000000005002b5cf                ucCheckColonTimerFlag
                0x000000005002b5d0                ucDateTimeRefreshFlag
                0x000000005002b5d2                usLCDBackLightOn10MSTimer
                0x000000005002b5d4                RealTime
                0x000000005002b5dc                ucLCDBacklightOnFlag
                0x000000005002b5dd                ucTempMin
 *fill*         0x000000005002b5de        0x2 00
 .scommon       0x000000005002b5e0       0x72 ././apppos.o
                0x000000005002b5e0                usTrxnLogIndex
                0x000000005002b5e2                usMsgType
                0x000000005002b5e4                ucBlackListExistFlag
                0x000000005002b5e5                ucBuyTrxnType
                0x000000005002b5e8                iMaxDBCtrlIndex
                0x000000005002b5ec                lMaxLogAddr
                0x000000005002b5f0                usBackupMsgType
                0x000000005002b5f2                usEodTrxnCount
                0x000000005002b5f4                usBackupTransType
                0x000000005002b5f8                dBuyAmount
                0x000000005002b600                pstfSavingTrxnLog
                0x000000005002b604                lMinLogAddr
                0x000000005002b608                pstfLastTrxnLog
                0x000000005002b60c                ucReversalFlag
                0x000000005002b610                iStartDBCtrlIndex
                0x000000005002b614                ucSIMChargeOperatorCode
                0x000000005002b616                usTransType
                0x000000005002b618                dDebitBuyAmount
                0x000000005002b620                ulBackupPCode
                0x000000005002b628                dCreditBuyAmout
                0x000000005002b630                pstfTempTrxnLog
                0x000000005002b638                dRefundAmout
                0x000000005002b640                ucMultiMerchantSelectedNo
                0x000000005002b641                ucPINInputAndReconnectFlag
                0x000000005002b642                ucReversalRetryCnt
                0x000000005002b644                pstfFirstTrxnLog
                0x000000005002b648                ulPCode
                0x000000005002b64c                ucReversalRetryTimePerCnt
                0x000000005002b64e                usTrxnTotalCount
                0x000000005002b650                usResponseCode
 *fill*         0x000000005002b652        0x2 00
 .scommon       0x000000005002b654       0x10 ././rs232.o
                0x000000005002b654                iRS232RxCnt
                0x000000005002b658                usRS232TaskStep
                0x000000005002b65a                usRS23210MSMaxTimeout
                0x000000005002b65c                usRS23210MSTimer
                0x000000005002b660                iRS232RxSize
 .scommon       0x000000005002b664        0xd ././printer.o
                0x000000005002b664                usPrintingFinish10MSTimer
                0x000000005002b666                ucPrintError
                0x000000005002b668                usPrintAutoSecondReceipt10MSTimer
                0x000000005002b66a                usPrint10MSTimer
                0x000000005002b66c                ucPRTDensity
                0x000000005002b66d                ucPrintReceiptNo
                0x000000005002b66e                usPrintStep
                0x000000005002b670                ucPrintPrePrintingAreaFlag
 *fill*         0x000000005002b671        0x3 00
 .scommon       0x000000005002b674        0xc ././utils.o
                0x000000005002b674                sSelectedMenuItemLine
                0x000000005002b676                sTotalMenuItemNo
                0x000000005002b678                sStartDisplayMenuLine
                0x000000005002b67a                sSelectedMenuItemNo
                0x000000005002b67c                psz17FirstMenuItemMsgAddr
 .scommon       0x000000005002b680       0x1c ././key.o
                0x000000005002b680                usMainStatus
                0x000000005002b682                cMaxInputCnt
                0x000000005002b684                pusServiceAddr
                0x000000005002b688                cXPos
                0x000000005002b68a                usReversalPrint10MSTimer
                0x000000005002b68c                usAutoReversal10MSTimer
                0x000000005002b68e                sVirtualKey
                0x000000005002b690                sTempKey
                0x000000005002b694                lCallHome1SECTimer
                0x000000005002b698                cYPos
                0x000000005002b69a                usAutoInitial10MSTimer
 .scommon       0x000000005002b69c       0x10 ././modem.o
                0x000000005002b69c                ucReqDataReadyFlag
                0x000000005002b69d                ucDisconnectCnt
                0x000000005002b69e                ucReqDataTxFlag
                0x000000005002b6a0                iRxSize
                0x000000005002b6a4                iRxCnt
                0x000000005002b6a8                iTxSize
 .scommon       0x000000005002b6ac       0x28 ././flash.o
                0x000000005002b6ac                pstHotCard
                0x000000005002b6b0                iFlashTrxnLogSectorNo
                0x000000005002b6b4                pstBinTable
                0x000000005002b6b8                pstAppList
                0x000000005002b6bc                lFlashSectorSize
                0x000000005002b6c0                pstFuncList
                0x000000005002b6c4                pstMasterKey
                0x000000005002b6c8                stpFlashPOSSetupInfo
                0x000000005002b6cc                pstParams
                0x000000005002b6d0                iFlashMemorySize
 .scommon       0x000000005002b6d4        0xc ././htmlutil.o
                0x000000005002b6d4                giTLVBufTotalLen
                0x000000005002b6d8                giTLVBufLen
                0x000000005002b6dc                pgbTLVBuf
 .scommon       0x000000005002b6e0        0xc ././hwtest.o
                0x000000005002b6e0                iModemTestTotalCnt
                0x000000005002b6e4                ucModemTestFlag
                0x000000005002b6e8                iModemTestOKCnt
 .scommon       0x000000005002b6ec       0x44 ././gsm.o
                0x000000005002b6ec                ucGprsGsmModel
                0x000000005002b6ed                ucGprsCheckDisconnectCnt
                0x000000005002b6ee                ucGprsCmdRetryCnt
                0x000000005002b6ef                ucGprsModuleOkFlag
                0x000000005002b6f0                ucGprsPowerOffFlag
                0x000000005002b6f1                ucGprsBerValue
                0x000000005002b6f2                ucGprsRssiRetryCnt
                0x000000005002b6f4                giTransactionType
                0x000000005002b6f8                ucGprsSIMStatus
                0x000000005002b6f9                ucGprsDLESetFlag
                0x000000005002b6fa                ucGprsRegistrationStatus
                0x000000005002b6fc                GPRS_bearer_Retry
                0x000000005002b700                ucGprsBearerOpenedFlag
                0x000000005002b702                usWipCmdRetryCnt
                0x000000005002b704                pusReqSequence
                0x000000005002b708                ucGprsRegistrationRetryCnt
                0x000000005002b70a                usGprs10MSMaxTimeout
                0x000000005002b70c                giRequestType
                0x000000005002b710                ucGprsMaxConnectCnt
                0x000000005002b711                ucGprsRssiValue
                0x000000005002b714                lGprsTest1SecCheckTimer
                0x000000005002b718                ucGprsPowerOnStatus
                0x000000005002b719                ucGprsNetworkConnectionStatus
                0x000000005002b71a                usGprsTaskStep
                0x000000005002b71c                ucGprsConnectCnt
                0x000000005002b720                lGprsTest1SecStartTimer
                0x000000005002b724                ucGprsSIMCheckedFlag
                0x000000005002b728                giRespContentLength
                0x000000005002b72c                ucGsmNetworkRegistrationMode
                0x000000005002b72e                usGprs10MSTimer
 .scommon       0x000000005002b730       0x11 ././msr.o
                0x000000005002b730                sz5ExpiryDate
                0x000000005002b738                isDetectCard
                0x000000005002b73c                sz4CardServiceCode
                0x000000005002b740                ucMSRTrack
 *fill*         0x000000005002b741        0x3 00
 .sbss          0x000000005002b744        0x4 ../../lib/libc.a(errno.o)
                0x000000005002b744                errno
 .scommon       0x000000005002b748       0x14 ../../sdk/Bitel_Bitel.a(BITEL_TL.o)
                0x000000005002b748                SCS_SlotOpen
                0x000000005002b74c                SCS_Mode
                0x000000005002b74d                ucSCS_Protocol
                0x000000005002b74e                SCS_ModeAUX
                0x000000005002b750                ulSCS_BaudRate
                0x000000005002b754                ucSCS_RS232Open
                0x000000005002b758                SCS_SlotNo
 .scommon       0x000000005002b75c        0xc ../../sdk/Bitel_Bitel.a(CryptoLib.o)
                0x000000005002b75c                AESkeyIntialized
                0x000000005002b760                _AHN_KeyLoad
                0x000000005002b764                iTrmModelNo
 .scommon       0x000000005002b768       0x2c ../../sdk/Bitel_Bitel.a(EMV_APP.o)
                0x000000005002b768                pgbPOSEntryMode
                0x000000005002b76c                pgsTrmTVR
                0x000000005002b770                gbDDFstackHead
                0x000000005002b774                pgsTrmCVMR
                0x000000005002b778                pgsTrmCAPA
                0x000000005002b77c                gbDDFstackTail
                0x000000005002b780                pgsTrmTSI
                0x000000005002b784                pgsTrmISR
                0x000000005002b788                pgsTrmACAP
                0x000000005002b78c                pgsIccAIP
                0x000000005002b790                giTrmISR
 .scommon       0x000000005002b794        0x8 ../../sdk/Bitel_Bitel.a(EMV_CAT.o)
                0x000000005002b794                pgbTrmRevocList
                0x000000005002b798                pgbTrmExcepList
 .scommon       0x000000005002b79c        0x1 ../../sdk/Bitel_Bitel.a(KEYLIB.o)
                0x000000005002b79c                ucKeyCnt
 *fill*         0x000000005002b79d        0x1 00
 .scommon       0x000000005002b79e        0x2 ../../sdk/Bitel_Bitel.a(KEYPAD.o)
                0x000000005002b79e                usWaittime
 .scommon       0x000000005002b7a0        0xa ../../sdk/Bitel_Bitel.a(gem_TL.o)
                0x000000005002b7a0                GemSlotOpen
                0x000000005002b7a4                GemSlotNo
                0x000000005002b7a8                GemMode
                0x000000005002b7a9                GemModeAUX
 *fill*         0x000000005002b7aa        0x2 00
 .scommon       0x000000005002b7ac       0x98 ../../sdk/Bitel_Bitel.a(libc.o)
                0x000000005002b7ac                rx_status
                0x000000005002b7b0                Request_Array
                0x000000005002b7b8                SMS_Read_RX_ptr
                0x000000005002b7bc                BitelucCheckColonTimerFlag
                0x000000005002b7c0                Paper_Flags
                0x000000005002b7c4                BitelusColonOn1MSTimer
                0x000000005002b7c6                BitelucLCDBacklightOnFlag
                0x000000005002b7c8                nextque
                0x000000005002b7cc                BitelucCurrencyExp
                0x000000005002b7d0                SIMerror
                0x000000005002b7d4                ComMsgNo
                0x000000005002b7d8                Paper_Exist
                0x000000005002b7dc                BitelucLCDContrast
                0x000000005002b7e0                paperflg
                0x000000005002b7e4                BitelucFarsiFlag
                0x000000005002b7e8                preque
                0x000000005002b7ec                pGrBuf
                0x000000005002b7f0                gsmptr
                0x000000005002b7f4                BitelucTempMin
                0x000000005002b7f8                GSMProcess
                0x000000005002b7fc                Printer_Finish
                0x000000005002b800                BitelucTempSec
                0x000000005002b804                Printer_Array
                0x000000005002b808                valuekey
                0x000000005002b80c                Page_Array
                0x000000005002b811                enqcnt
                0x000000005002b814                Start_Print
                0x000000005002b818                SMS_RX_ptr
                0x000000005002b81c                cstsfg
                0x000000005002b820                BitelucDateTimeRefreshFlag
                0x000000005002b824                Master_Array
                0x000000005002b82c                CSQflag
                0x000000005002b830                VolumnMax
                0x000000005002b834                BitelRealTime
                0x000000005002b83c                BitelusLCDBackLightOn10MSTimer
                0x000000005002b840                BiteliModelName
 .scommon       0x000000005002b844       0x20 ../../sdk/Bitel_Bitel.a(ppdrv.o)
                0x000000005002b844                PEDT_IPOINT
                0x000000005002b848                PEDR_MPOINT
                0x000000005002b84c                PEDR_IPOINT
                0x000000005002b850                PEDR_COUNT
                0x000000005002b854                PEDT_COUNT
                0x000000005002b858                pinWait
                0x000000005002b85c                gbSMID
                0x000000005002b860                PEDT_MPOINT
 .scommon       0x000000005002b864       0x14 ../../sdk/Bitel_Bitel.a(shsc.o)
                0x000000005002b864                D
                0x000000005002b868                A
                0x000000005002b86c                B
                0x000000005002b870                C
                0x000000005002b874                E
 .scommon       0x000000005002b878        0x8 ../../sdk/Bitel_Bitel.a(lebRS232.o)
                0x000000005002b878                RS232StremPtr
                0x000000005002b87c                DebugCom0

.usr.bss        0x000000005002b880   0x196f04
 *(.bss COMMON)
 COMMON         0x000000005002b880      0x100 ././tmsdown.o
                0x000000005002b880                tTMSDownloadInfo
 .bss           0x000000005002b980       0x2c ././scard.o
                0x000000005002b990                gbCurrencyExp
                0x000000005002b9a8                gbKeyCnt
                0x000000005002b991                gbSignatureFlag
                0x000000005002b98c                gwTrmARC
                0x000000005002b995                gbReferralFlag
                0x000000005002b9a2                gwModemTOut
                0x000000005002b996                gbSaveTrxnRec
                0x000000005002b999                gbTrxnType
                0x000000005002b9a4                gtwCRC
                0x000000005002b99b                gbPin_TypeDone
                0x000000005002b9a0                gwModemWait
                0x000000005002b980                gbRS232TaskStep
                0x000000005002b981                gbEmvScTaskStep
                0x000000005002b997                gbValidateBit
                0x000000005002b98a                gwResponseCode
                0x000000005002b993                gbRefundFlag
                0x000000005002b988                ghResponseCode
                0x000000005002b99c                gdwAmount
                0x000000005002b994                gbOnLineFlag
                0x000000005002b9a6                gtwLRC
                0x000000005002b9a9                gbKeyVal
                0x000000005002b98e                gwCurrencyCode
                0x000000005002b99a                gbPin_Type
                0x000000005002b998                gbAmountIN
                0x000000005002b984                giTrxnNOnFlag
                0x000000005002b992                gbReversalFlag
 COMMON         0x000000005002b9ac     0x1200 ././scard.o
                0x000000005002b9ac                TxDBUF
                0x000000005002c1ac                CardNo2
                0x000000005002c1e0                CardNo1
                0x000000005002c250                CardAcceptorMerchantID
                0x000000005002c260                gsXRec
                0x000000005002c360                Total_Amount
                0x000000005002c370                SelectedAID
                0x000000005002c384                RxDBUF
                0x000000005002cb84                CardHolderName
                0x000000005002cb98                gbTmpKeyBuf
 COMMON         0x000000005002cbac       0x6d ././main.o
                0x000000005002cbac                sz9POSSetupInfoDate
                0x000000005002cbb8                sz17ProgramDate
                0x000000005002cbcc                sz17HWInfo
                0x000000005002cbe0                sz17TMSSWVersion
                0x000000005002cbf4                sz17ProgramVersion
                0x000000005002cc08                sz17TRMModelName
 *fill*         0x000000005002cc19        0x3 00
 COMMON         0x000000005002cc1c     0x5093 ././apppos.o
                0x000000005002cc1c                sz17EncypritedCardPIN
                0x000000005002cc30                st_TrxnReqData
                0x000000005002d838                F048aL3_sz1003BillPaymentData1
                0x000000005002dc24                sz29OrganizationAccount
                0x000000005002dc44                sz9BackupMerchantID
                0x000000005002dc54                c9ActiveTrxnMenuType
                0x000000005002dc60                sz9BackupTerminalID
                0x000000005002dc6c                sz13CardPIN
                0x000000005002dc7c                sz19BillID
                0x000000005002dc90                st_ErrRespData
                0x000000005002dccc                sz13Amount
                0x000000005002dcdc                st_TrxnRespData
                0x000000005002e8f8                st_ReversalTrxnReqData
                0x000000005002f500                st_TrxnLogDB
                0x0000000050031440                sz12PhoneNo
                0x000000005003144c                st_TrxnLog
                0x0000000050031814                sz19PaymentID
                0x0000000050031828                sz17ActiveTrxnMenuMsg
                0x00000000500318c4                F121aL3_sz1003BillPaymentData2
 *fill*         0x0000000050031caf        0x1 00
 COMMON         0x0000000050031cb0     0x2000 ././rs232.o
                0x0000000050031cb0                ucRS232RxBuf
 .bss           0x0000000050033cb0        0x4 ././utils.o
 COMMON         0x0000000050033cb4       0xfd ././key.o
                0x0000000050033cb4                c65TempKeyBuf
                0x0000000050033cf8                c65TempBuf
                0x0000000050033d3c                c65CommaAndDotString
                0x0000000050033d80                st_EndOfDay
                0x0000000050033da0                sz17TrxnTitle
 *fill*         0x0000000050033db1        0x3 00
 COMMON         0x0000000050033db4     0xc000 ././modem.o
                0x0000000050033db4                ucTxBuf
                0x0000000050035db4                ucRxBuf
                0x0000000050037db4                ucTrxnTxBuf
                0x0000000050039db4                ucTrxnRxBuf
                0x000000005003bdb4                ucTxTempBuf
                0x000000005003ddb4                ucRxTempBuf
 .bss           0x000000005003fdb4        0x6 ././flash.o
                0x000000005003fdb4                usAppListCnt
                0x000000005003fdb6                usBinTableCnt
                0x000000005003fdb8                usHotCardsCnt
 *fill*         0x000000005003fdba        0x2 00
 COMMON         0x000000005003fdbc    0x33e6c ././flash.o
                0x000000005003fdbc                tPOSUtilBuf
                0x0000000050041dbc                stEmvApp
                0x0000000050041eb0                tPOSUtilInfo
                0x0000000050041ec8                stEmvRevokeCapk
                0x0000000050041ed4                stSessionKey
                0x00000000500420d4                stEmvCapk
                0x0000000050042228                stBinTable
                0x0000000050043228                stParams
                0x0000000050043a28                stAppList
                0x0000000050047628                stMasterKey
                0x0000000050047828                stHotCard
                0x0000000050051828                st_POSSetupInfo
                0x0000000050053828                FlashWriteBuf
                0x0000000050073828                stEftParams
 .bss           0x0000000050073c28       0x10 ././htmlutil.o
                0x0000000050073c34                SP
                0x0000000050073c2a                giTmpCount
                0x0000000050073c28                iStartAt
                0x0000000050073c30                gIndex
                0x0000000050073c2c                giApplIdx
 COMMON         0x0000000050073c38      0x440 ././htmlutil.o
                0x0000000050073c38                TagStack
                0x0000000050073e38                tagName
                0x0000000050073e78                tagData
 .bss           0x0000000050074078     0x2350 ././sfontlib.o
 COMMON         0x00000000500763c8      0x880 ././sfontlib.o
                0x00000000500763c8                EXTFONTBUF
                0x0000000050076448                LcdDispBuf
                0x0000000050076848                GraphicBuf
 .bss           0x0000000050076c48        0x4 ././gsm.o
                0x0000000050076c48                iKeyCnt
 COMMON         0x0000000050076c4c     0x2814 ././gsm.o
                0x0000000050076c4c                sz18GsmOperator
                0x0000000050076c60                ucHtmlHeader
                0x0000000050077460                gbTmpRespBuf
 COMMON         0x0000000050079460      0x111 ././msr.o
                0x0000000050079460                sz20PAN
                0x0000000050079474                sz38Track2Data
                0x000000005007949c                sz77Track1Data
                0x00000000500794ec                sz27CardholderName
                0x0000000050079508                sz105Track3Data
 *fill*         0x0000000050079571        0x3 00
 .bss           0x0000000050079574       0x88 ../../lib/libc.a(_iobdata.o)
 .bss           0x00000000500795fc       0x80 ../../lib/libc.a(_iobfuncs.o)
 .bss           0x000000005007967c       0x40 ../../lib/libc.a(flock.o)
 .bss           0x00000000500796bc      0x238 ../../sdk/Bitel_Bitel.a(CryptoLib.o)
 COMMON         0x00000000500798f4     0x17ec ../../sdk/Bitel_Bitel.a(CryptoLib.o)
                0x00000000500798f4                PRIVATE_KEY2
                0x0000000050079e78                tBuf1
                0x0000000050079ef8                PUBLIC_KEY2
                0x000000005007a0fc                tCipherText
                0x000000005007a17c                SvrPlainText
                0x000000005007a27c                tBuf2
                0x000000005007a2fc                tDataBuf
                0x000000005007aafc                TrmRxDataBuf
                0x000000005007abfc                gsSHSconText
                0x000000005007ac5c                tPlainText
                0x000000005007acdc                TrmCipherText
                0x000000005007addc                SvrCipherText
                0x000000005007aedc                PUBLIC_KEY1
 .bss           0x000000005007b0e0       0x18 ../../sdk/Bitel_Bitel.a(EMV_APP.o)
                0x000000005007b0e3                gbCryptoInfoDat
                0x000000005007b0e0                gbIccAIDno
                0x000000005007b0e4                gwOffLineSDAstart
                0x000000005007b0f4                giISRlen
                0x000000005007b0f0                pgbDir
                0x000000005007b0e1                gbIccAFLno
                0x000000005007b0e8                gwOffLineSDAbytes
                0x000000005007b0ec                gu32GenACcmd
                0x000000005007b0e2                gbCDArequested
 COMMON         0x000000005007b0f8       0x5b ../../sdk/Bitel_Bitel.a(EMV_APP.o)
                0x000000005007b0f8                gsTrmTAC
                0x000000005007b108                emvref
                0x000000005007b144                gsIsuIAC
 *fill*         0x000000005007b153        0x1 00
 .bss           0x000000005007b154        0xc ../../sdk/Bitel_Bitel.a(EMV_CAT.o)
                0x000000005007b154                pgsTrmRsaKey
 COMMON         0x000000005007b160      0xabc ../../sdk/Bitel_Bitel.a(EMV_CAT.o)
                0x000000005007b160                gsICCardPK
                0x000000005007b364                gsEmvCA_PK
                0x000000005007b568                gsTrmRsaKey
                0x000000005007ba18                gsIssuerPK
 .bss           0x000000005007bc1c      0x7ec ../../sdk/Bitel_Bitel.a(ISO8583.o)
 COMMON         0x000000005007c408       0x41 ../../sdk/Bitel_Bitel.a(KEYLIB.o)
                0x000000005007c408                c65DotorCommaString
 *fill*         0x000000005007c449        0x3 00
 .bss           0x000000005007c44c       0x1c ../../sdk/Bitel_Bitel.a(KEYPAD.o)
                0x000000005007c450                giStsID
                0x000000005007c45b                gbPassCode
                0x000000005007c44c                pStsTbl
                0x000000005007c45a                gbLangCode
                0x000000005007c45c                gbF5INQctr
                0x000000005007c454                giPassFlag
 COMMON         0x000000005007c468       0x14 ../../sdk/Bitel_Bitel.a(KEYPAD.o)
                0x000000005007c468                Total_Amount_MAX
 .bss           0x000000005007c47c        0x4 ../../sdk/Bitel_Bitel.a(LCDLIB.o)
 .bss           0x000000005007c480        0x4 ../../sdk/Bitel_Bitel.a(libc.o)
 COMMON         0x000000005007c484   0x144a54 ../../sdk/Bitel_Bitel.a(libc.o)
                0x000000005007c484                gbGrBuf
                0x000000005008c484                SMS_Read_RX_Stream
                0x000000005008cc84                SystemHardware
                0x000000005008cce4                CDMATelNo
                0x000000005008ccf8                gPageTable
                0x00000000500b8c18                gHEAP
                0x00000000501c06d8                SMSRxStream
 .bss           0x00000000501c0ed8      0x458 ../../sdk/Bitel_Bitel.a(ppdrv.o)
                0x00000000501c0ee8                iDispCmd
 COMMON         0x00000000501c1330      0x3a4 ../../sdk/Bitel_Bitel.a(ppdrv.o)
                0x00000000501c1330                PEDT_BUFFER
                0x00000000501c1430                PEDR_BUFFER
                0x00000000501c1530                PinData
 .bss           0x00000000501c16d4        0x4 ../../sdk/Bitel_Bitel.a(r_random.o)
 .bss           0x00000000501c16d8       0x40 ../../sdk/Bitel_Bitel.a(DES_ECB.o)
 COMMON         0x00000000501c1718       0x86 ../../sdk/Bitel_Bitel.a(FRMWRI.o)
                0x00000000501c1718                buf
 *fill*         0x00000000501c179e        0x2 00
 COMMON         0x00000000501c17a0      0x800 ../../sdk/Bitel_Bitel.a(lebRS232.o)
                0x00000000501c17a0                RS232Stream
 .bss           0x00000000501c1fa0       0x14 ../../sdk/Bitel_Bitel.a(libEncryption.o)
 COMMON         0x00000000501c1fb4      0x7d0 ../../sdk/Bitel_Bitel.a(libEncryption.o)
                0x00000000501c1fb4                stringx
                0x00000000501c239c                streamx
                0x00000000501c2784                __usr_bss_end = .
                0x00000000501c2784                __usr_end = .

.usr.data       0x00000000501c2788      0x4d4 load address 0x0000000000000000
                0x00000000501c2788                __usr_ram_start = .
                0x00000000501c2788                _fdata = .
 *(.data .sdata)
 .data          0x00000000501c2788      0x30c ././htmlutil.o
                0x00000000501c2a68                sHttpReqHeader
                0x00000000501c2a90                MasterKeyTID
                0x00000000501c29b8                sTAMSFunctionList
                0x00000000501c2a2c                sBankFunctionList
                0x00000000501c2788                gusApplId
                0x00000000501c29e8                sVoucherFunctionList
                0x00000000501c278c                NIBSS_TAG
 .data          0x00000000501c2a94        0x4 ././gsm.o
 .data          0x00000000501c2a98        0x8 ../../lib/libc.a(strtod.o)
 .data          0x00000000501c2aa0       0xd4 ../../lib/libc.a(_iobdata.o)
 .sdata         0x00000000501c2b74        0x4 ../../lib/libc.a(_iobdata.o)
                0x00000000501c2b74                _libc_data
 .data          0x00000000501c2b78        0xc ../../sdk/Bitel_Bitel.a(EMV_CAT.o)
                0x00000000501c2b7e                TrmARC_Z2
                0x00000000501c2b7a                TrmARC_Z1
                0x00000000501c2b78                TrmARC_Y1
                0x00000000501c2b82                TrmARC_Z3
                0x00000000501c2b80                TrmARC_Y3
                0x00000000501c2b7c                TrmARC_Y2
 .data          0x00000000501c2b84        0x8 ../../sdk/Bitel_Bitel.a(ppdrv.o)
                0x00000000501c2b88                dbgsts
 .data          0x00000000501c2b8c       0x90 ../../sdk/Bitel_Bitel.a(rand.o)
 .data          0x00000000501c2c1c       0x40 ../../sdk/Bitel_Bitel.a(libEncryption.o)
 *(.lit4 .lit8)
 *(SORT(.dev*))
                0x00000000501c2c5c                _edata = <code 339> (.)
                0x00000000501c2c5c                __usr_ram_end = .
                0x0000000000000000                __usr_rom_start = LOADADDR (.usr.data)
                0x00000000501c2c5c                PROVIDE (edata, .)

.css.security   0x00000000400d0a98       0x30 load address 0xffffffffeff0e310
 .css.security  0x00000000400d0a98       0x30 ../../sdk/Bitel_Bitel.a(ppdrv.o)

.rel.dyn
START GROUP
LOAD ../../lib/libc.a
LOAD ../../lib/libe.a
LOAD ../../lib/emvlib.a
LOAD ../../sdk/Bitel_Bitel.a
LOAD ../../lib/emvlib.a
LOAD ../../lib/emvl2.a
LOAD ../../lib/libm.a
LOAD ././tmsdown.o
LOAD ././timeconv.o
LOAD ././scard.o
LOAD ././main.o
LOAD ././reftable.o
LOAD ././prtmsg.o
LOAD ././rtc.o
LOAD ././apppos.o
LOAD ././rs232.o
LOAD ././printer.o
LOAD ././utils.o
LOAD ././key.o
LOAD ././lcdmsg.o
LOAD ././modem.o
LOAD ././flash.o
LOAD ././htmlutil.o
LOAD ././hwtest.o
LOAD ././sfontlib.o
LOAD ././gsm.o
LOAD ././msr.o
LOAD ./../../Object/cstartup.o
END GROUP
OUTPUT(./Bitel_Hack_5100_flash_Normal.elf elf32-tradlittlemips)

.reginfo        0x0000000000000000       0x18
 .reginfo       0x0000000000000000       0x18 ././tmsdown.o

.pdr            0x0000000000000000     0xa560
 .pdr           0x0000000000000000      0x260 ././tmsdown.o
 .pdr           0x0000000000000260       0x80 ././timeconv.o
 .pdr           0x00000000000002e0      0x380 ././scard.o
 .pdr           0x0000000000000660       0x40 ././main.o
 .pdr           0x00000000000006a0      0x120 ././rtc.o
 .pdr           0x00000000000007c0      0x1e0 ././apppos.o
 .pdr           0x00000000000009a0       0x60 ././rs232.o
 .pdr           0x0000000000000a00      0x560 ././printer.o
 .pdr           0x0000000000000f60       0xa0 ././utils.o
 .pdr           0x0000000000001000      0x380 ././key.o
 .pdr           0x0000000000001380      0x160 ././modem.o
 .pdr           0x00000000000014e0      0x1a0 ././flash.o
 .pdr           0x0000000000001680      0x320 ././htmlutil.o
 .pdr           0x00000000000019a0      0x140 ././hwtest.o
 .pdr           0x0000000000001ae0      0x460 ././sfontlib.o
 .pdr           0x0000000000001f40      0x220 ././gsm.o
 .pdr           0x0000000000002160       0xa0 ././msr.o
 .pdr           0x0000000000002200       0xa0 ./../../Object/cstartup.o
 .pdr           0x00000000000022a0       0x20 ../../lib/libc.a(memcmp.o)
 .pdr           0x00000000000022c0       0x20 ../../lib/libc.a(memcpy.o)
 .pdr           0x00000000000022e0       0x20 ../../lib/libc.a(memset.o)
 .pdr           0x0000000000002300       0x20 ../../lib/libc.a(strcmp.o)
 .pdr           0x0000000000002320       0x20 ../../lib/libc.a(strcpy.o)
 .pdr           0x0000000000002340       0x20 ../../lib/libc.a(strlen.o)
 .pdr           0x0000000000002360       0x20 ../../lib/libc.a(strcat.o)
 .pdr           0x0000000000002380       0x20 ../../lib/libc.a(strncmp.o)
 .pdr           0x00000000000023a0       0x20 ../../lib/libc.a(strncpy.o)
 .pdr           0x00000000000023c0       0x20 ../../lib/libc.a(strchr.o)
 .pdr           0x00000000000023e0       0x20 ../../lib/libc.a(strstr.o)
 .pdr           0x0000000000002400      0x220 ../../lib/libc.a(ctypef.o)
 .pdr           0x0000000000002620       0x20 ../../lib/libc.a(atof.o)
 .pdr           0x0000000000002640       0x20 ../../lib/libc.a(atol.o)
 .pdr           0x0000000000002660       0x20 ../../lib/libc.a(atoi.o)
 .pdr           0x0000000000002680       0x20 ../../lib/libc.a(strtol.o)
 .pdr           0x00000000000026a0       0x40 ../../lib/libc.a(strtod.o)
 .pdr           0x00000000000026e0       0x40 ../../lib/libc.a(sprintf.o)
 .pdr           0x0000000000002720       0x40 ../../lib/libc.a(vsprintf.o)
 .pdr           0x0000000000002760       0x40 ../../lib/libc.a(isinf.o)
 .pdr           0x00000000000027a0       0x20 ../../lib/libc.a(ldexp.o)
 .pdr           0x00000000000027c0       0xc0 ../../lib/libc.a(_doprnt.o)
 .pdr           0x0000000000002880       0xc0 ../../lib/libc.a(_iobfuncs.o)
 .pdr           0x0000000000002940       0xa0 ../../lib/libc.a(_iobstring.o)
 .pdr           0x00000000000029e0      0x100 ../../lib/libc.a(flock.o)
 .pdr           0x0000000000002ae0       0x20 ../../lib/libc.a(modf.o)
 .pdr           0x0000000000002b00       0x20 ../../lib/libc.a(_fwalk.o)
 .pdr           0x0000000000002b20       0x20 ../../lib/libe.a(_muldf3.o)
 .pdr           0x0000000000002b40       0x40 ../../lib/libe.a(_adddf3.o)
 .pdr           0x0000000000002b80       0x20 ../../lib/libe.a(_fixdfsi.o)
 .pdr           0x0000000000002ba0       0x20 ../../lib/libe.a(_floatsidf.o)
 .pdr           0x0000000000002bc0       0x60 ../../sdk/Bitel_Bitel.a(BITEL_TL.o)
 .pdr           0x0000000000002c20      0x380 ../../sdk/Bitel_Bitel.a(CryptoLib.o)
 .pdr           0x0000000000002fa0      0x440 ../../sdk/Bitel_Bitel.a(EMV_APP.o)
 .pdr           0x00000000000033e0      0x1e0 ../../sdk/Bitel_Bitel.a(EMV_CAT.o)
 .pdr           0x00000000000035c0      0x6c0 ../../sdk/Bitel_Bitel.a(ISO8583.o)
 .pdr           0x0000000000003c80       0xc0 ../../sdk/Bitel_Bitel.a(KEYLIB.o)
 .pdr           0x0000000000003d40      0x1a0 ../../sdk/Bitel_Bitel.a(KEYPAD.o)
 .pdr           0x0000000000003ee0      0x140 ../../sdk/Bitel_Bitel.a(LCDLIB.o)
 .pdr           0x0000000000004020      0x100 ../../sdk/Bitel_Bitel.a(RTCLIB.o)
 .pdr           0x0000000000004120      0x120 ../../sdk/Bitel_Bitel.a(RTCLIB2.o)
 .pdr           0x0000000000004240       0xc0 ../../sdk/Bitel_Bitel.a(TIMERLIB.o)
 .pdr           0x0000000000004300       0x20 ../../sdk/Bitel_Bitel.a(UTILLIB.o)
 .pdr           0x0000000000004320       0x20 ../../sdk/Bitel_Bitel.a(_ledf2.o)
 .pdr           0x0000000000004340       0x20 ../../sdk/Bitel_Bitel.a(_orderdf2.o)
 .pdr           0x0000000000004360     0x1740 ../../sdk/Bitel_Bitel.a(asmutil.o)
 .pdr           0x0000000000005aa0      0xe80 ../../sdk/Bitel_Bitel.a(btutils.o)
 .pdr           0x0000000000006920      0x360 ../../sdk/Bitel_Bitel.a(emv_APDU.o)
 .pdr           0x0000000000006c80       0x20 ../../sdk/Bitel_Bitel.a(emv_init.o)
 .pdr           0x0000000000006ca0       0xe0 ../../sdk/Bitel_Bitel.a(emv_power_up.o)
 .pdr           0x0000000000006d80       0x20 ../../sdk/Bitel_Bitel.a(emv_set_slot_info.o)
 .pdr           0x0000000000006da0       0xe0 ../../sdk/Bitel_Bitel.a(emv_t1.o)
 .pdr           0x0000000000006e80       0x80 ../../sdk/Bitel_Bitel.a(emv_timer.o)
 .pdr           0x0000000000006f00       0x20 ../../sdk/Bitel_Bitel.a(emv_transmit.o)
 .pdr           0x0000000000006f20       0x60 ../../sdk/Bitel_Bitel.a(gem_TL.o)
 .pdr           0x0000000000006f80      0x220 ../../sdk/Bitel_Bitel.a(hal_apm.o)
 .pdr           0x00000000000071a0       0x40 ../../sdk/Bitel_Bitel.a(hal_apm_clock.o)
 .pdr           0x00000000000071e0      0x1c0 ../../sdk/Bitel_Bitel.a(hal_flash.o)
 .pdr           0x00000000000073a0       0xa0 ../../sdk/Bitel_Bitel.a(hal_intr.o)
 .pdr           0x0000000000007440       0x40 ../../sdk/Bitel_Bitel.a(hal_intr_mask.o)
 .pdr           0x0000000000007480       0x60 ../../sdk/Bitel_Bitel.a(hal_libc.o)
 .pdr           0x00000000000074e0       0x20 ../../sdk/Bitel_Bitel.a(hal_scs_attach.o)
 .pdr           0x0000000000007500       0x40 ../../sdk/Bitel_Bitel.a(hal_scs_cancel.o)
 .pdr           0x0000000000007540      0x1a0 ../../sdk/Bitel_Bitel.a(hal_scs_dev.o)
 .pdr           0x00000000000076e0       0x20 ../../sdk/Bitel_Bitel.a(hal_scs_get_last_error.o)
 .pdr           0x0000000000007700       0x20 ../../sdk/Bitel_Bitel.a(hal_scs_get_slot_info.o)
 .pdr           0x0000000000007720       0x20 ../../sdk/Bitel_Bitel.a(hal_scs_get_status.o)
 .pdr           0x0000000000007740       0x20 ../../sdk/Bitel_Bitel.a(hal_scs_init.o)
 .pdr           0x0000000000007760       0x20 ../../sdk/Bitel_Bitel.a(hal_scs_ioctl.o)
 .pdr           0x0000000000007780       0xa0 ../../sdk/Bitel_Bitel.a(hal_scs_isr.o)
 .pdr           0x0000000000007820       0x20 ../../sdk/Bitel_Bitel.a(hal_scs_power_down.o)
 .pdr           0x0000000000007840       0x20 ../../sdk/Bitel_Bitel.a(hal_scs_power_up.o)
 .pdr           0x0000000000007860       0x20 ../../sdk/Bitel_Bitel.a(hal_scs_pps_exchange.o)
 .pdr           0x0000000000007880       0x20 ../../sdk/Bitel_Bitel.a(hal_scs_set_config.o)
 .pdr           0x00000000000078a0       0x20 ../../sdk/Bitel_Bitel.a(hal_scs_set_slot_info.o)
 .pdr           0x00000000000078c0       0x20 ../../sdk/Bitel_Bitel.a(hal_scs_t1_block.o)
 .pdr           0x00000000000078e0       0xa0 ../../sdk/Bitel_Bitel.a(hal_scs_vsr_power_up.o)
 .pdr           0x0000000000007980       0x40 ../../sdk/Bitel_Bitel.a(hal_scs_vsr_pps_exchange.o)
 .pdr           0x00000000000079c0       0x40 ../../sdk/Bitel_Bitel.a(hal_scs_vsr_t1_block.o)
 .pdr           0x0000000000007a00       0xa0 ../../sdk/Bitel_Bitel.a(hal_sys_alloc.o)
 .pdr           0x0000000000007aa0      0x160 ../../sdk/Bitel_Bitel.a(hal_timer.o)
 .pdr           0x0000000000007c00      0x400 ../../sdk/Bitel_Bitel.a(libc.o)
 .pdr           0x0000000000008000      0x3e0 ../../sdk/Bitel_Bitel.a(ppdrv.o)
 .pdr           0x00000000000083e0      0x380 ../../sdk/Bitel_Bitel.a(prtutil.o)
 .pdr           0x0000000000008760      0x3c0 ../../sdk/Bitel_Bitel.a(r_enhanc.o)
 .pdr           0x0000000000008b20       0x40 ../../sdk/Bitel_Bitel.a(r_keygen.o)
 .pdr           0x0000000000008b60      0x100 ../../sdk/Bitel_Bitel.a(r_random.o)
 .pdr           0x0000000000008c60       0x60 ../../sdk/Bitel_Bitel.a(rand.o)
 .pdr           0x0000000000008cc0       0xc0 ../../sdk/Bitel_Bitel.a(rsa.o)
 .pdr           0x0000000000008d80      0x160 ../../sdk/Bitel_Bitel.a(sc_at83c26.o)
 .pdr           0x0000000000008ee0       0xc0 ../../sdk/Bitel_Bitel.a(shsc.o)
 .pdr           0x0000000000008fa0      0x180 ../../sdk/Bitel_Bitel.a(DES_ECB.o)
 .pdr           0x0000000000009120       0x40 ../../sdk/Bitel_Bitel.a(FRMWRI.o)
 .pdr           0x0000000000009160      0x2e0 ../../sdk/Bitel_Bitel.a(NN.o)
 .pdr           0x0000000000009440       0x20 ../../sdk/Bitel_Bitel.a(_divdf3.o)
 .pdr           0x0000000000009460       0x20 ../../sdk/Bitel_Bitel.a(_gedf2.o)
 .pdr           0x0000000000009480       0x20 ../../sdk/Bitel_Bitel.a(_ltdf2.o)
 .pdr           0x00000000000094a0       0x20 ../../sdk/Bitel_Bitel.a(_nedf2.o)
 .pdr           0x00000000000094c0      0x1e0 ../../sdk/Bitel_Bitel.a(at83c26_api.o)
 .pdr           0x00000000000096a0       0x60 ../../sdk/Bitel_Bitel.a(at83c26_lib.o)
 .pdr           0x0000000000009700      0x1c0 ../../sdk/Bitel_Bitel.a(desc.o)
 .pdr           0x00000000000098c0       0x60 ../../sdk/Bitel_Bitel.a(emv_atr.o)
 .pdr           0x0000000000009920       0x60 ../../sdk/Bitel_Bitel.a(emv_t0.o)
 .pdr           0x0000000000009980       0x80 ../../sdk/Bitel_Bitel.a(fputc.o)
 .pdr           0x0000000000009a00      0x1a0 ../../sdk/Bitel_Bitel.a(hal_i2c.o)
 .pdr           0x0000000000009ba0       0x60 ../../sdk/Bitel_Bitel.a(hal_scs_analog.o)
 .pdr           0x0000000000009c00       0x20 ../../sdk/Bitel_Bitel.a(hal_scs_clock.o)
 .pdr           0x0000000000009c20       0xe0 ../../sdk/Bitel_Bitel.a(hal_scs_counter.o)
 .pdr           0x0000000000009d00       0x60 ../../sdk/Bitel_Bitel.a(hal_scs_handler.o)
 .pdr           0x0000000000009d60       0x20 ../../sdk/Bitel_Bitel.a(hal_scs_t0_in.o)
 .pdr           0x0000000000009d80       0x20 ../../sdk/Bitel_Bitel.a(hal_scs_t0_out.o)
 .pdr           0x0000000000009da0       0x40 ../../sdk/Bitel_Bitel.a(hal_scs_vsr_t0_in.o)
 .pdr           0x0000000000009de0       0x40 ../../sdk/Bitel_Bitel.a(hal_scs_vsr_t0_out.o)
 .pdr           0x0000000000009e20      0x100 ../../sdk/Bitel_Bitel.a(lebRS232.o)
 .pdr           0x0000000000009f20      0x1a0 ../../sdk/Bitel_Bitel.a(libEncryption.o)
 .pdr           0x000000000000a0c0       0xc0 ../../sdk/Bitel_Bitel.a(libPorts.o)
 .pdr           0x000000000000a180      0x140 ../../sdk/Bitel_Bitel.a(lib_timer.o)
 .pdr           0x000000000000a2c0       0x80 ../../sdk/Bitel_Bitel.a(md2c.o)
 .pdr           0x000000000000a340       0xc0 ../../sdk/Bitel_Bitel.a(md4c.o)
 .pdr           0x000000000000a400       0x40 ../../sdk/Bitel_Bitel.a(prime.o)
 .pdr           0x000000000000a440       0x60 ../../sdk/Bitel_Bitel.a(r_encode.o)
 .pdr           0x000000000000a4a0       0x40 ../../sdk/Bitel_Bitel.a(_addsf3.o)
 .pdr           0x000000000000a4e0       0x20 ../../sdk/Bitel_Bitel.a(_extendsfdf2.o)
 .pdr           0x000000000000a500       0x20 ../../sdk/Bitel_Bitel.a(_fixsfsi.o)
 .pdr           0x000000000000a520       0x20 ../../sdk/Bitel_Bitel.a(_floatsisf.o)
 .pdr           0x000000000000a540       0x20 ../../sdk/Bitel_Bitel.a(_truncdfsf2.o)

.mdebug.abi32   0x0000000000000000        0x0

.debug_abbrev   0x0000000000000000     0x7ccc
 .debug_abbrev  0x0000000000000000      0x1d5 ././tmsdown.o
 .debug_abbrev  0x00000000000001d5       0xdb ././timeconv.o
 .debug_abbrev  0x00000000000002b0      0x24c ././scard.o
 .debug_abbrev  0x00000000000004fc      0x1be ././main.o
 .debug_abbrev  0x00000000000006ba       0x6a ././reftable.o
 .debug_abbrev  0x0000000000000724       0x7d ././prtmsg.o
 .debug_abbrev  0x00000000000007a1      0x1c3 ././rtc.o
 .debug_abbrev  0x0000000000000964      0x21b ././apppos.o
 .debug_abbrev  0x0000000000000b7f       0xdb ././rs232.o
 .debug_abbrev  0x0000000000000c5a      0x1f2 ././printer.o
 .debug_abbrev  0x0000000000000e4c      0x12d ././utils.o
 .debug_abbrev  0x0000000000000f79      0x278 ././key.o
 .debug_abbrev  0x00000000000011f1       0x97 ././lcdmsg.o
 .debug_abbrev  0x0000000000001288      0x223 ././modem.o
 .debug_abbrev  0x00000000000014ab      0x22b ././flash.o
 .debug_abbrev  0x00000000000016d6      0x223 ././htmlutil.o
 .debug_abbrev  0x00000000000018f9      0x150 ././hwtest.o
 .debug_abbrev  0x0000000000001a49      0x22c ././sfontlib.o
 .debug_abbrev  0x0000000000001c75      0x1a1 ././gsm.o
 .debug_abbrev  0x0000000000001e16      0x13d ././msr.o
 .debug_abbrev  0x0000000000001f53       0x23 ../../lib/libe.a(_muldf3.o)
 .debug_abbrev  0x0000000000001f76       0x23 ../../lib/libe.a(_adddf3.o)
 .debug_abbrev  0x0000000000001f99       0x23 ../../lib/libe.a(_fixdfsi.o)
 .debug_abbrev  0x0000000000001fbc       0x23 ../../lib/libe.a(_floatsidf.o)
 .debug_abbrev  0x0000000000001fdf      0x15e ../../sdk/Bitel_Bitel.a(BITEL_TL.o)
 .debug_abbrev  0x000000000000213d      0x1ab ../../sdk/Bitel_Bitel.a(CryptoLib.o)
 .debug_abbrev  0x00000000000022e8      0x23d ../../sdk/Bitel_Bitel.a(EMV_APP.o)
 .debug_abbrev  0x0000000000002525      0x1d5 ../../sdk/Bitel_Bitel.a(EMV_CAT.o)
 .debug_abbrev  0x00000000000026fa      0x159 ../../sdk/Bitel_Bitel.a(ISO8583.o)
 .debug_abbrev  0x0000000000002853       0xf7 ../../sdk/Bitel_Bitel.a(KEYLIB.o)
 .debug_abbrev  0x000000000000294a      0x204 ../../sdk/Bitel_Bitel.a(KEYPAD.o)
 .debug_abbrev  0x0000000000002b4e       0xdf ../../sdk/Bitel_Bitel.a(LCDLIB.o)
 .debug_abbrev  0x0000000000002c2d      0x127 ../../sdk/Bitel_Bitel.a(RTCLIB.o)
 .debug_abbrev  0x0000000000002d54      0x136 ../../sdk/Bitel_Bitel.a(RTCLIB2.o)
 .debug_abbrev  0x0000000000002e8a       0xa0 ../../sdk/Bitel_Bitel.a(TIMERLIB.o)
 .debug_abbrev  0x0000000000002f2a       0x66 ../../sdk/Bitel_Bitel.a(UTILLIB.o)
 .debug_abbrev  0x0000000000002f90       0x32 ../../sdk/Bitel_Bitel.a(_ledf2.o)
 .debug_abbrev  0x0000000000002fc2       0x23 ../../sdk/Bitel_Bitel.a(_orderdf2.o)
 .debug_abbrev  0x0000000000002fe5      0x257 ../../sdk/Bitel_Bitel.a(asmutil.o)
 .debug_abbrev  0x000000000000323c      0x185 ../../sdk/Bitel_Bitel.a(emv_APDU.o)
 .debug_abbrev  0x00000000000033c1      0x141 ../../sdk/Bitel_Bitel.a(emv_init.o)
 .debug_abbrev  0x0000000000003502      0x207 ../../sdk/Bitel_Bitel.a(emv_power_up.o)
 .debug_abbrev  0x0000000000003709       0xf2 ../../sdk/Bitel_Bitel.a(emv_set_slot_info.o)
 .debug_abbrev  0x00000000000037fb      0x1ce ../../sdk/Bitel_Bitel.a(emv_t1.o)
 .debug_abbrev  0x00000000000039c9      0x12e ../../sdk/Bitel_Bitel.a(emv_timer.o)
 .debug_abbrev  0x0000000000003af7       0xe3 ../../sdk/Bitel_Bitel.a(emv_transmit.o)
 .debug_abbrev  0x0000000000003bda      0x15e ../../sdk/Bitel_Bitel.a(gem_TL.o)
 .debug_abbrev  0x0000000000003d38      0x13b ../../sdk/Bitel_Bitel.a(hal_apm.o)
 .debug_abbrev  0x0000000000003e73      0x19b ../../sdk/Bitel_Bitel.a(hal_flash.o)
 .debug_abbrev  0x000000000000400e       0xf0 ../../sdk/Bitel_Bitel.a(hal_intr.o)
 .debug_abbrev  0x00000000000040fe       0x93 ../../sdk/Bitel_Bitel.a(hal_libc.o)
 .debug_abbrev  0x0000000000004191       0xce ../../sdk/Bitel_Bitel.a(hal_scs_attach.o)
 .debug_abbrev  0x000000000000425f       0xe3 ../../sdk/Bitel_Bitel.a(hal_scs_cancel.o)
 .debug_abbrev  0x0000000000004342       0xfc ../../sdk/Bitel_Bitel.a(hal_scs_dev.o)
 .debug_abbrev  0x000000000000443e       0xce ../../sdk/Bitel_Bitel.a(hal_scs_get_last_error.o)
 .debug_abbrev  0x000000000000450c      0x115 ../../sdk/Bitel_Bitel.a(hal_scs_get_slot_info.o)
 .debug_abbrev  0x0000000000004621       0xce ../../sdk/Bitel_Bitel.a(hal_scs_get_status.o)
 .debug_abbrev  0x00000000000046ef      0x120 ../../sdk/Bitel_Bitel.a(hal_scs_init.o)
 .debug_abbrev  0x000000000000480f       0xd9 ../../sdk/Bitel_Bitel.a(hal_scs_ioctl.o)
 .debug_abbrev  0x00000000000048e8       0xff ../../sdk/Bitel_Bitel.a(hal_scs_isr.o)
 .debug_abbrev  0x00000000000049e7       0xd9 ../../sdk/Bitel_Bitel.a(hal_scs_power_down.o)
 .debug_abbrev  0x0000000000004ac0       0xd9 ../../sdk/Bitel_Bitel.a(hal_scs_power_up.o)
 .debug_abbrev  0x0000000000004b99       0xd9 ../../sdk/Bitel_Bitel.a(hal_scs_pps_exchange.o)
 .debug_abbrev  0x0000000000004c72      0x115 ../../sdk/Bitel_Bitel.a(hal_scs_set_config.o)
 .debug_abbrev  0x0000000000004d87      0x120 ../../sdk/Bitel_Bitel.a(hal_scs_set_slot_info.o)
 .debug_abbrev  0x0000000000004ea7       0xd9 ../../sdk/Bitel_Bitel.a(hal_scs_t1_block.o)
 .debug_abbrev  0x0000000000004f80      0x14f ../../sdk/Bitel_Bitel.a(hal_scs_vsr_power_up.o)
 .debug_abbrev  0x00000000000050cf       0xd2 ../../sdk/Bitel_Bitel.a(hal_scs_vsr_pps_exchange.o)
 .debug_abbrev  0x00000000000051a1       0xe5 ../../sdk/Bitel_Bitel.a(hal_scs_vsr_t1_block.o)
 .debug_abbrev  0x0000000000005286       0xbd ../../sdk/Bitel_Bitel.a(hal_sys_alloc.o)
 .debug_abbrev  0x0000000000005343      0x169 ../../sdk/Bitel_Bitel.a(hal_timer.o)
 .debug_abbrev  0x00000000000054ac      0x1dd ../../sdk/Bitel_Bitel.a(libc.o)
 .debug_abbrev  0x0000000000005689      0x1fc ../../sdk/Bitel_Bitel.a(ppdrv.o)
 .debug_abbrev  0x0000000000005885      0x12b ../../sdk/Bitel_Bitel.a(prtutil.o)
 .debug_abbrev  0x00000000000059b0      0x1b4 ../../sdk/Bitel_Bitel.a(r_enhanc.o)
 .debug_abbrev  0x0000000000005b64       0xd8 ../../sdk/Bitel_Bitel.a(r_keygen.o)
 .debug_abbrev  0x0000000000005c3c      0x107 ../../sdk/Bitel_Bitel.a(r_random.o)
 .debug_abbrev  0x0000000000005d43      0x114 ../../sdk/Bitel_Bitel.a(rsa.o)
 .debug_abbrev  0x0000000000005e57      0x1b5 ../../sdk/Bitel_Bitel.a(sc_at83c26.o)
 .debug_abbrev  0x000000000000600c      0x10b ../../sdk/Bitel_Bitel.a(shsc.o)
 .debug_abbrev  0x0000000000006117      0x112 ../../sdk/Bitel_Bitel.a(DES_ECB.o)
 .debug_abbrev  0x0000000000006229      0x134 ../../sdk/Bitel_Bitel.a(FRMWRI.o)
 .debug_abbrev  0x000000000000635d      0x167 ../../sdk/Bitel_Bitel.a(NN.o)
 .debug_abbrev  0x00000000000064c4       0x23 ../../sdk/Bitel_Bitel.a(_divdf3.o)
 .debug_abbrev  0x00000000000064e7       0x32 ../../sdk/Bitel_Bitel.a(_gedf2.o)
 .debug_abbrev  0x0000000000006519       0x32 ../../sdk/Bitel_Bitel.a(_ltdf2.o)
 .debug_abbrev  0x000000000000654b       0x32 ../../sdk/Bitel_Bitel.a(_nedf2.o)
 .debug_abbrev  0x000000000000657d       0xf4 ../../sdk/Bitel_Bitel.a(at83c26_api.o)
 .debug_abbrev  0x0000000000006671       0x9d ../../sdk/Bitel_Bitel.a(at83c26_lib.o)
 .debug_abbrev  0x000000000000670e      0x132 ../../sdk/Bitel_Bitel.a(desc.o)
 .debug_abbrev  0x0000000000006840      0x145 ../../sdk/Bitel_Bitel.a(emv_atr.o)
 .debug_abbrev  0x0000000000006985      0x141 ../../sdk/Bitel_Bitel.a(emv_t0.o)
 .debug_abbrev  0x0000000000006ac6      0x17f ../../sdk/Bitel_Bitel.a(hal_i2c.o)
 .debug_abbrev  0x0000000000006c45       0xde ../../sdk/Bitel_Bitel.a(hal_scs_analog.o)
 .debug_abbrev  0x0000000000006d23       0xb8 ../../sdk/Bitel_Bitel.a(hal_scs_clock.o)
 .debug_abbrev  0x0000000000006ddb       0xe7 ../../sdk/Bitel_Bitel.a(hal_scs_counter.o)
 .debug_abbrev  0x0000000000006ec2       0xc0 ../../sdk/Bitel_Bitel.a(hal_scs_handler.o)
 .debug_abbrev  0x0000000000006f82       0xd9 ../../sdk/Bitel_Bitel.a(hal_scs_t0_in.o)
 .debug_abbrev  0x000000000000705b       0xd9 ../../sdk/Bitel_Bitel.a(hal_scs_t0_out.o)
 .debug_abbrev  0x0000000000007134       0xea ../../sdk/Bitel_Bitel.a(hal_scs_vsr_t0_in.o)
 .debug_abbrev  0x000000000000721e       0xdf ../../sdk/Bitel_Bitel.a(hal_scs_vsr_t0_out.o)
 .debug_abbrev  0x00000000000072fd      0x18b ../../sdk/Bitel_Bitel.a(lebRS232.o)
 .debug_abbrev  0x0000000000007488      0x187 ../../sdk/Bitel_Bitel.a(libEncryption.o)
 .debug_abbrev  0x000000000000760f      0x129 ../../sdk/Bitel_Bitel.a(libPorts.o)
 .debug_abbrev  0x0000000000007738      0x138 ../../sdk/Bitel_Bitel.a(lib_timer.o)
 .debug_abbrev  0x0000000000007870       0xee ../../sdk/Bitel_Bitel.a(md2c.o)
 .debug_abbrev  0x000000000000795e      0x112 ../../sdk/Bitel_Bitel.a(md4c.o)
 .debug_abbrev  0x0000000000007a70       0xcc ../../sdk/Bitel_Bitel.a(prime.o)
 .debug_abbrev  0x0000000000007b3c       0x49 ../../sdk/Bitel_Bitel.a(prtfont.o)
 .debug_abbrev  0x0000000000007b85       0x98 ../../sdk/Bitel_Bitel.a(r_encode.o)
 .debug_abbrev  0x0000000000007c1d       0x23 ../../sdk/Bitel_Bitel.a(_addsf3.o)
 .debug_abbrev  0x0000000000007c40       0x23 ../../sdk/Bitel_Bitel.a(_extendsfdf2.o)
 .debug_abbrev  0x0000000000007c63       0x23 ../../sdk/Bitel_Bitel.a(_fixsfsi.o)
 .debug_abbrev  0x0000000000007c86       0x23 ../../sdk/Bitel_Bitel.a(_floatsisf.o)
 .debug_abbrev  0x0000000000007ca9       0x23 ../../sdk/Bitel_Bitel.a(_truncdfsf2.o)

.debug_info     0x0000000000000000    0x52b3a
 .debug_info    0x0000000000000000     0x1ea5 ././tmsdown.o
 .debug_info    0x0000000000001ea5      0x4d3 ././timeconv.o
 .debug_info    0x0000000000002378     0x305a ././scard.o
 .debug_info    0x00000000000053d2     0x27be ././main.o
 .debug_info    0x0000000000007b90      0x244 ././reftable.o
 .debug_info    0x0000000000007dd4      0x205 ././prtmsg.o
 .debug_info    0x0000000000007fd9     0x214a ././rtc.o
 .debug_info    0x000000000000a123     0x2f0f ././apppos.o
 .debug_info    0x000000000000d032      0x3c0 ././rs232.o
 .debug_info    0x000000000000d3f2     0x3b60 ././printer.o
 .debug_info    0x0000000000010f52      0x734 ././utils.o
 .debug_info    0x0000000000011686     0x3d19 ././key.o
 .debug_info    0x000000000001539f      0x2c0 ././lcdmsg.o
 .debug_info    0x000000000001565f     0x2986 ././modem.o
 .debug_info    0x0000000000017fe5     0x2c3c ././flash.o
 .debug_info    0x000000000001ac21     0x34ad ././htmlutil.o
 .debug_info    0x000000000001e0ce     0x14b7 ././hwtest.o
 .debug_info    0x000000000001f585     0x15d8 ././sfontlib.o
 .debug_info    0x0000000000020b5d     0x28de ././gsm.o
 .debug_info    0x000000000002343b      0xf6c ././msr.o
 .debug_info    0x00000000000243a7       0x30 ../../lib/libe.a(_muldf3.o)
 .debug_info    0x00000000000243d7       0x42 ../../lib/libe.a(_adddf3.o)
 .debug_info    0x0000000000024419       0x30 ../../lib/libe.a(_fixdfsi.o)
 .debug_info    0x0000000000024449       0x30 ../../lib/libe.a(_floatsidf.o)
 .debug_info    0x0000000000024479      0x51a ../../sdk/Bitel_Bitel.a(BITEL_TL.o)
 .debug_info    0x0000000000024993     0x1b38 ../../sdk/Bitel_Bitel.a(CryptoLib.o)
 .debug_info    0x00000000000264cb     0x27c8 ../../sdk/Bitel_Bitel.a(EMV_APP.o)
 .debug_info    0x0000000000028c93     0x110f ../../sdk/Bitel_Bitel.a(EMV_CAT.o)
 .debug_info    0x0000000000029da2     0x182e ../../sdk/Bitel_Bitel.a(ISO8583.o)
 .debug_info    0x000000000002b5d0      0x4f1 ../../sdk/Bitel_Bitel.a(KEYLIB.o)
 .debug_info    0x000000000002bac1      0xef3 ../../sdk/Bitel_Bitel.a(KEYPAD.o)
 .debug_info    0x000000000002c9b4      0x499 ../../sdk/Bitel_Bitel.a(LCDLIB.o)
 .debug_info    0x000000000002ce4d      0x714 ../../sdk/Bitel_Bitel.a(RTCLIB.o)
 .debug_info    0x000000000002d561      0x7e9 ../../sdk/Bitel_Bitel.a(RTCLIB2.o)
 .debug_info    0x000000000002dd4a      0x2b8 ../../sdk/Bitel_Bitel.a(TIMERLIB.o)
 .debug_info    0x000000000002e002      0x189 ../../sdk/Bitel_Bitel.a(UTILLIB.o)
 .debug_info    0x000000000002e18b       0x3a ../../sdk/Bitel_Bitel.a(_ledf2.o)
 .debug_info    0x000000000002e1c5       0x30 ../../sdk/Bitel_Bitel.a(_orderdf2.o)
 .debug_info    0x000000000002e1f5     0x5e22 ../../sdk/Bitel_Bitel.a(asmutil.o)
 .debug_info    0x0000000000034017     0x11da ../../sdk/Bitel_Bitel.a(emv_APDU.o)
 .debug_info    0x00000000000351f1      0x52c ../../sdk/Bitel_Bitel.a(emv_init.o)
 .debug_info    0x000000000003571d      0xa1f ../../sdk/Bitel_Bitel.a(emv_power_up.o)
 .debug_info    0x000000000003613c      0x4c5 ../../sdk/Bitel_Bitel.a(emv_set_slot_info.o)
 .debug_info    0x0000000000036601      0x851 ../../sdk/Bitel_Bitel.a(emv_t1.o)
 .debug_info    0x0000000000036e52      0x54d ../../sdk/Bitel_Bitel.a(emv_timer.o)
 .debug_info    0x000000000003739f      0x49c ../../sdk/Bitel_Bitel.a(emv_transmit.o)
 .debug_info    0x000000000003783b      0x4e9 ../../sdk/Bitel_Bitel.a(gem_TL.o)
 .debug_info    0x0000000000037d24      0xb18 ../../sdk/Bitel_Bitel.a(hal_apm.o)
 .debug_info    0x000000000003883c      0xd89 ../../sdk/Bitel_Bitel.a(hal_flash.o)
 .debug_info    0x00000000000395c5      0x4f2 ../../sdk/Bitel_Bitel.a(hal_intr.o)
 .debug_info    0x0000000000039ab7      0x262 ../../sdk/Bitel_Bitel.a(hal_libc.o)
 .debug_info    0x0000000000039d19      0x41a ../../sdk/Bitel_Bitel.a(hal_scs_attach.o)
 .debug_info    0x000000000003a133      0x442 ../../sdk/Bitel_Bitel.a(hal_scs_cancel.o)
 .debug_info    0x000000000003a575      0x78f ../../sdk/Bitel_Bitel.a(hal_scs_dev.o)
 .debug_info    0x000000000003ad04      0x40b ../../sdk/Bitel_Bitel.a(hal_scs_get_last_error.o)
 .debug_info    0x000000000003b10f      0x4ab ../../sdk/Bitel_Bitel.a(hal_scs_get_slot_info.o)
 .debug_info    0x000000000003b5ba      0x43d ../../sdk/Bitel_Bitel.a(hal_scs_get_status.o)
 .debug_info    0x000000000003b9f7      0x4e1 ../../sdk/Bitel_Bitel.a(hal_scs_init.o)
 .debug_info    0x000000000003bed8      0x419 ../../sdk/Bitel_Bitel.a(hal_scs_ioctl.o)
 .debug_info    0x000000000003c2f1      0x51c ../../sdk/Bitel_Bitel.a(hal_scs_isr.o)
 .debug_info    0x000000000003c80d      0x405 ../../sdk/Bitel_Bitel.a(hal_scs_power_down.o)
 .debug_info    0x000000000003cc12      0x4c4 ../../sdk/Bitel_Bitel.a(hal_scs_power_up.o)
 .debug_info    0x000000000003d0d6      0x4b4 ../../sdk/Bitel_Bitel.a(hal_scs_pps_exchange.o)
 .debug_info    0x000000000003d58a      0x4e8 ../../sdk/Bitel_Bitel.a(hal_scs_set_config.o)
 .debug_info    0x000000000003da72      0x4b0 ../../sdk/Bitel_Bitel.a(hal_scs_set_slot_info.o)
 .debug_info    0x000000000003df22      0x4c4 ../../sdk/Bitel_Bitel.a(hal_scs_t1_block.o)
 .debug_info    0x000000000003e3e6      0x649 ../../sdk/Bitel_Bitel.a(hal_scs_vsr_power_up.o)
 .debug_info    0x000000000003ea2f      0x430 ../../sdk/Bitel_Bitel.a(hal_scs_vsr_pps_exchange.o)
 .debug_info    0x000000000003ee5f      0x461 ../../sdk/Bitel_Bitel.a(hal_scs_vsr_t1_block.o)
 .debug_info    0x000000000003f2c0      0x34e ../../sdk/Bitel_Bitel.a(hal_sys_alloc.o)
 .debug_info    0x000000000003f60e      0xc04 ../../sdk/Bitel_Bitel.a(hal_timer.o)
 .debug_info    0x0000000000040212     0x16b4 ../../sdk/Bitel_Bitel.a(libc.o)
 .debug_info    0x00000000000418c6     0x16c1 ../../sdk/Bitel_Bitel.a(ppdrv.o)
 .debug_info    0x0000000000042f87     0x1183 ../../sdk/Bitel_Bitel.a(prtutil.o)
 .debug_info    0x000000000004410a     0x19c1 ../../sdk/Bitel_Bitel.a(r_enhanc.o)
 .debug_info    0x0000000000045acb      0x5c4 ../../sdk/Bitel_Bitel.a(r_keygen.o)
 .debug_info    0x000000000004608f      0x5a6 ../../sdk/Bitel_Bitel.a(r_random.o)
 .debug_info    0x0000000000046635      0x865 ../../sdk/Bitel_Bitel.a(rsa.o)
 .debug_info    0x0000000000046e9a      0x718 ../../sdk/Bitel_Bitel.a(sc_at83c26.o)
 .debug_info    0x00000000000475b2      0x476 ../../sdk/Bitel_Bitel.a(shsc.o)
 .debug_info    0x0000000000047a28      0x9b8 ../../sdk/Bitel_Bitel.a(DES_ECB.o)
 .debug_info    0x00000000000483e0      0x42b ../../sdk/Bitel_Bitel.a(FRMWRI.o)
 .debug_info    0x000000000004880b      0xe06 ../../sdk/Bitel_Bitel.a(NN.o)
 .debug_info    0x0000000000049611       0x30 ../../sdk/Bitel_Bitel.a(_divdf3.o)
 .debug_info    0x0000000000049641       0x3a ../../sdk/Bitel_Bitel.a(_gedf2.o)
 .debug_info    0x000000000004967b       0x3a ../../sdk/Bitel_Bitel.a(_ltdf2.o)
 .debug_info    0x00000000000496b5       0x3a ../../sdk/Bitel_Bitel.a(_nedf2.o)
 .debug_info    0x00000000000496ef      0x622 ../../sdk/Bitel_Bitel.a(at83c26_api.o)
 .debug_info    0x0000000000049d11      0x2c0 ../../sdk/Bitel_Bitel.a(at83c26_lib.o)
 .debug_info    0x0000000000049fd1      0x990 ../../sdk/Bitel_Bitel.a(desc.o)
 .debug_info    0x000000000004a961      0x6c0 ../../sdk/Bitel_Bitel.a(emv_atr.o)
 .debug_info    0x000000000004b021      0x52f ../../sdk/Bitel_Bitel.a(emv_t0.o)
 .debug_info    0x000000000004b550      0xadf ../../sdk/Bitel_Bitel.a(hal_i2c.o)
 .debug_info    0x000000000004c02f      0x47c ../../sdk/Bitel_Bitel.a(hal_scs_analog.o)
 .debug_info    0x000000000004c4ab      0x43a ../../sdk/Bitel_Bitel.a(hal_scs_clock.o)
 .debug_info    0x000000000004c8e5      0x62e ../../sdk/Bitel_Bitel.a(hal_scs_counter.o)
 .debug_info    0x000000000004cf13      0x42b ../../sdk/Bitel_Bitel.a(hal_scs_handler.o)
 .debug_info    0x000000000004d33e      0x4bc ../../sdk/Bitel_Bitel.a(hal_scs_t0_in.o)
 .debug_info    0x000000000004d7fa      0x4be ../../sdk/Bitel_Bitel.a(hal_scs_t0_out.o)
 .debug_info    0x000000000004dcb8      0x482 ../../sdk/Bitel_Bitel.a(hal_scs_vsr_t0_in.o)
 .debug_info    0x000000000004e13a      0x430 ../../sdk/Bitel_Bitel.a(hal_scs_vsr_t0_out.o)
 .debug_info    0x000000000004e56a      0xbf7 ../../sdk/Bitel_Bitel.a(lebRS232.o)
 .debug_info    0x000000000004f161     0x10a6 ../../sdk/Bitel_Bitel.a(libEncryption.o)
 .debug_info    0x0000000000050207      0xcab ../../sdk/Bitel_Bitel.a(libPorts.o)
 .debug_info    0x0000000000050eb2      0xb87 ../../sdk/Bitel_Bitel.a(lib_timer.o)
 .debug_info    0x0000000000051a39      0x396 ../../sdk/Bitel_Bitel.a(md2c.o)
 .debug_info    0x0000000000051dcf      0x473 ../../sdk/Bitel_Bitel.a(md4c.o)
 .debug_info    0x0000000000052242      0x374 ../../sdk/Bitel_Bitel.a(prime.o)
 .debug_info    0x00000000000525b6       0xff ../../sdk/Bitel_Bitel.a(prtfont.o)
 .debug_info    0x00000000000526b5      0x383 ../../sdk/Bitel_Bitel.a(r_encode.o)
 .debug_info    0x0000000000052a38       0x42 ../../sdk/Bitel_Bitel.a(_addsf3.o)
 .debug_info    0x0000000000052a7a       0x30 ../../sdk/Bitel_Bitel.a(_extendsfdf2.o)
 .debug_info    0x0000000000052aaa       0x30 ../../sdk/Bitel_Bitel.a(_fixsfsi.o)
 .debug_info    0x0000000000052ada       0x30 ../../sdk/Bitel_Bitel.a(_floatsisf.o)
 .debug_info    0x0000000000052b0a       0x30 ../../sdk/Bitel_Bitel.a(_truncdfsf2.o)

.debug_line     0x0000000000000000     0xec10
 .debug_line    0x0000000000000000      0x5cd ././tmsdown.o
 .debug_line    0x00000000000005cd      0x12e ././timeconv.o
 .debug_line    0x00000000000006fb      0x476 ././scard.o
 .debug_line    0x0000000000000b71      0x26a ././main.o
 .debug_line    0x0000000000000ddb       0x28 ././reftable.o
 .debug_line    0x0000000000000e03       0x33 ././prtmsg.o
 .debug_line    0x0000000000000e36      0x22e ././rtc.o
 .debug_line    0x0000000000001064      0x2a9 ././apppos.o
 .debug_line    0x000000000000130d       0xb3 ././rs232.o
 .debug_line    0x00000000000013c0      0xa06 ././printer.o
 .debug_line    0x0000000000001dc6      0x1ea ././utils.o
 .debug_line    0x0000000000001fb0     0x1217 ././key.o
 .debug_line    0x00000000000031c7       0x33 ././lcdmsg.o
 .debug_line    0x00000000000031fa      0x29c ././modem.o
 .debug_line    0x0000000000003496      0x1ef ././flash.o
 .debug_line    0x0000000000003685      0x8ee ././htmlutil.o
 .debug_line    0x0000000000003f73      0x439 ././hwtest.o
 .debug_line    0x00000000000043ac      0x48a ././sfontlib.o
 .debug_line    0x0000000000004836      0xcaf ././gsm.o
 .debug_line    0x00000000000054e5      0x116 ././msr.o
 .debug_line    0x00000000000055fb       0x61 ../../lib/libe.a(_muldf3.o)
 .debug_line    0x000000000000565c       0x61 ../../lib/libe.a(_adddf3.o)
 .debug_line    0x00000000000056bd       0x62 ../../lib/libe.a(_fixdfsi.o)
 .debug_line    0x000000000000571f       0x62 ../../lib/libe.a(_floatsidf.o)
 .debug_line    0x0000000000005781      0x1f3 ../../sdk/Bitel_Bitel.a(BITEL_TL.o)
 .debug_line    0x0000000000005974      0x753 ../../sdk/Bitel_Bitel.a(CryptoLib.o)
 .debug_line    0x00000000000060c7      0x9f7 ../../sdk/Bitel_Bitel.a(EMV_APP.o)
 .debug_line    0x0000000000006abe      0x302 ../../sdk/Bitel_Bitel.a(EMV_CAT.o)
 .debug_line    0x0000000000006dc0      0x591 ../../sdk/Bitel_Bitel.a(ISO8583.o)
 .debug_line    0x0000000000007351      0x1ca ../../sdk/Bitel_Bitel.a(KEYLIB.o)
 .debug_line    0x000000000000751b      0x2a2 ../../sdk/Bitel_Bitel.a(KEYPAD.o)
 .debug_line    0x00000000000077bd       0xea ../../sdk/Bitel_Bitel.a(LCDLIB.o)
 .debug_line    0x00000000000078a7      0x1ce ../../sdk/Bitel_Bitel.a(RTCLIB.o)
 .debug_line    0x0000000000007a75      0x1f5 ../../sdk/Bitel_Bitel.a(RTCLIB2.o)
 .debug_line    0x0000000000007c6a       0x8a ../../sdk/Bitel_Bitel.a(TIMERLIB.o)
 .debug_line    0x0000000000007cf4       0x4b ../../sdk/Bitel_Bitel.a(UTILLIB.o)
 .debug_line    0x0000000000007d3f       0x61 ../../sdk/Bitel_Bitel.a(_ledf2.o)
 .debug_line    0x0000000000007da0       0x63 ../../sdk/Bitel_Bitel.a(_orderdf2.o)
 .debug_line    0x0000000000007e03      0xb04 ../../sdk/Bitel_Bitel.a(asmutil.o)
 .debug_line    0x0000000000008907      0x492 ../../sdk/Bitel_Bitel.a(emv_APDU.o)
 .debug_line    0x0000000000008d99       0xbe ../../sdk/Bitel_Bitel.a(emv_init.o)
 .debug_line    0x0000000000008e57      0x216 ../../sdk/Bitel_Bitel.a(emv_power_up.o)
 .debug_line    0x000000000000906d       0x80 ../../sdk/Bitel_Bitel.a(emv_set_slot_info.o)
 .debug_line    0x00000000000090ed      0x223 ../../sdk/Bitel_Bitel.a(emv_t1.o)
 .debug_line    0x0000000000009310       0xc2 ../../sdk/Bitel_Bitel.a(emv_timer.o)
 .debug_line    0x00000000000093d2       0x7e ../../sdk/Bitel_Bitel.a(emv_transmit.o)
 .debug_line    0x0000000000009450      0x1a4 ../../sdk/Bitel_Bitel.a(gem_TL.o)
 .debug_line    0x00000000000095f4      0x18e ../../sdk/Bitel_Bitel.a(hal_apm.o)
 .debug_line    0x0000000000009782      0x1ff ../../sdk/Bitel_Bitel.a(hal_flash.o)
 .debug_line    0x0000000000009981       0xb1 ../../sdk/Bitel_Bitel.a(hal_intr.o)
 .debug_line    0x0000000000009a32       0xc4 ../../sdk/Bitel_Bitel.a(hal_libc.o)
 .debug_line    0x0000000000009af6       0x67 ../../sdk/Bitel_Bitel.a(hal_scs_attach.o)
 .debug_line    0x0000000000009b5d       0x83 ../../sdk/Bitel_Bitel.a(hal_scs_cancel.o)
 .debug_line    0x0000000000009be0      0x113 ../../sdk/Bitel_Bitel.a(hal_scs_dev.o)
 .debug_line    0x0000000000009cf3       0x67 ../../sdk/Bitel_Bitel.a(hal_scs_get_last_error.o)
 .debug_line    0x0000000000009d5a       0x8c ../../sdk/Bitel_Bitel.a(hal_scs_get_slot_info.o)
 .debug_line    0x0000000000009de6       0x92 ../../sdk/Bitel_Bitel.a(hal_scs_get_status.o)
 .debug_line    0x0000000000009e78       0xcf ../../sdk/Bitel_Bitel.a(hal_scs_init.o)
 .debug_line    0x0000000000009f47       0xd4 ../../sdk/Bitel_Bitel.a(hal_scs_ioctl.o)
 .debug_line    0x000000000000a01b      0x10d ../../sdk/Bitel_Bitel.a(hal_scs_isr.o)
 .debug_line    0x000000000000a128       0x77 ../../sdk/Bitel_Bitel.a(hal_scs_power_down.o)
 .debug_line    0x000000000000a19f       0xde ../../sdk/Bitel_Bitel.a(hal_scs_power_up.o)
 .debug_line    0x000000000000a27d       0xb4 ../../sdk/Bitel_Bitel.a(hal_scs_pps_exchange.o)
 .debug_line    0x000000000000a331       0x9c ../../sdk/Bitel_Bitel.a(hal_scs_set_config.o)
 .debug_line    0x000000000000a3cd       0x9e ../../sdk/Bitel_Bitel.a(hal_scs_set_slot_info.o)
 .debug_line    0x000000000000a46b       0xc5 ../../sdk/Bitel_Bitel.a(hal_scs_t1_block.o)
 .debug_line    0x000000000000a530      0x146 ../../sdk/Bitel_Bitel.a(hal_scs_vsr_power_up.o)
 .debug_line    0x000000000000a676       0xe4 ../../sdk/Bitel_Bitel.a(hal_scs_vsr_pps_exchange.o)
 .debug_line    0x000000000000a75a       0xe2 ../../sdk/Bitel_Bitel.a(hal_scs_vsr_t1_block.o)
 .debug_line    0x000000000000a83c       0xcf ../../sdk/Bitel_Bitel.a(hal_sys_alloc.o)
 .debug_line    0x000000000000a90b      0x24c ../../sdk/Bitel_Bitel.a(hal_timer.o)
 .debug_line    0x000000000000ab57      0x4b7 ../../sdk/Bitel_Bitel.a(libc.o)
 .debug_line    0x000000000000b00e      0x809 ../../sdk/Bitel_Bitel.a(ppdrv.o)
 .debug_line    0x000000000000b817      0x41a ../../sdk/Bitel_Bitel.a(prtutil.o)
 .debug_line    0x000000000000bc31      0x31c ../../sdk/Bitel_Bitel.a(r_enhanc.o)
 .debug_line    0x000000000000bf4d      0x138 ../../sdk/Bitel_Bitel.a(r_keygen.o)
 .debug_line    0x000000000000c085      0x118 ../../sdk/Bitel_Bitel.a(r_random.o)
 .debug_line    0x000000000000c19d      0x19b ../../sdk/Bitel_Bitel.a(rsa.o)
 .debug_line    0x000000000000c338      0x220 ../../sdk/Bitel_Bitel.a(sc_at83c26.o)
 .debug_line    0x000000000000c558      0x18b ../../sdk/Bitel_Bitel.a(shsc.o)
 .debug_line    0x000000000000c6e3      0x14a ../../sdk/Bitel_Bitel.a(DES_ECB.o)
 .debug_line    0x000000000000c82d      0x227 ../../sdk/Bitel_Bitel.a(FRMWRI.o)
 .debug_line    0x000000000000ca54      0x2c5 ../../sdk/Bitel_Bitel.a(NN.o)
 .debug_line    0x000000000000cd19       0x61 ../../sdk/Bitel_Bitel.a(_divdf3.o)
 .debug_line    0x000000000000cd7a       0x61 ../../sdk/Bitel_Bitel.a(_gedf2.o)
 .debug_line    0x000000000000cddb       0x61 ../../sdk/Bitel_Bitel.a(_ltdf2.o)
 .debug_line    0x000000000000ce3c       0x61 ../../sdk/Bitel_Bitel.a(_nedf2.o)
 .debug_line    0x000000000000ce9d      0x1ce ../../sdk/Bitel_Bitel.a(at83c26_api.o)
 .debug_line    0x000000000000d06b       0x8b ../../sdk/Bitel_Bitel.a(at83c26_lib.o)
 .debug_line    0x000000000000d0f6      0x25b ../../sdk/Bitel_Bitel.a(desc.o)
 .debug_line    0x000000000000d351      0x142 ../../sdk/Bitel_Bitel.a(emv_atr.o)
 .debug_line    0x000000000000d493      0x102 ../../sdk/Bitel_Bitel.a(emv_t0.o)
 .debug_line    0x000000000000d595      0x21d ../../sdk/Bitel_Bitel.a(hal_i2c.o)
 .debug_line    0x000000000000d7b2       0x76 ../../sdk/Bitel_Bitel.a(hal_scs_analog.o)
 .debug_line    0x000000000000d828       0x70 ../../sdk/Bitel_Bitel.a(hal_scs_clock.o)
 .debug_line    0x000000000000d898       0xc3 ../../sdk/Bitel_Bitel.a(hal_scs_counter.o)
 .debug_line    0x000000000000d95b       0x7f ../../sdk/Bitel_Bitel.a(hal_scs_handler.o)
 .debug_line    0x000000000000d9da       0xb4 ../../sdk/Bitel_Bitel.a(hal_scs_t0_in.o)
 .debug_line    0x000000000000da8e       0xb2 ../../sdk/Bitel_Bitel.a(hal_scs_t0_out.o)
 .debug_line    0x000000000000db40       0xdb ../../sdk/Bitel_Bitel.a(hal_scs_vsr_t0_in.o)
 .debug_line    0x000000000000dc1b       0xcf ../../sdk/Bitel_Bitel.a(hal_scs_vsr_t0_out.o)
 .debug_line    0x000000000000dcea      0x22a ../../sdk/Bitel_Bitel.a(lebRS232.o)
 .debug_line    0x000000000000df14      0x396 ../../sdk/Bitel_Bitel.a(libEncryption.o)
 .debug_line    0x000000000000e2aa      0x1e6 ../../sdk/Bitel_Bitel.a(libPorts.o)
 .debug_line    0x000000000000e490      0x1b2 ../../sdk/Bitel_Bitel.a(lib_timer.o)
 .debug_line    0x000000000000e642       0xbc ../../sdk/Bitel_Bitel.a(md2c.o)
 .debug_line    0x000000000000e6fe      0x167 ../../sdk/Bitel_Bitel.a(md4c.o)
 .debug_line    0x000000000000e865       0xe6 ../../sdk/Bitel_Bitel.a(prime.o)
 .debug_line    0x000000000000e94b       0x27 ../../sdk/Bitel_Bitel.a(prtfont.o)
 .debug_line    0x000000000000e972       0xb7 ../../sdk/Bitel_Bitel.a(r_encode.o)
 .debug_line    0x000000000000ea29       0x61 ../../sdk/Bitel_Bitel.a(_addsf3.o)
 .debug_line    0x000000000000ea8a       0x61 ../../sdk/Bitel_Bitel.a(_extendsfdf2.o)
 .debug_line    0x000000000000eaeb       0x62 ../../sdk/Bitel_Bitel.a(_fixsfsi.o)
 .debug_line    0x000000000000eb4d       0x62 ../../sdk/Bitel_Bitel.a(_floatsisf.o)
 .debug_line    0x000000000000ebaf       0x61 ../../sdk/Bitel_Bitel.a(_truncdfsf2.o)

.debug_frame    0x0000000000000000     0x6954
 .debug_frame   0x0000000000000000      0x1c8 ././tmsdown.o
 .debug_frame   0x00000000000001c8       0x6c ././timeconv.o
 .debug_frame   0x0000000000000234      0x270 ././scard.o
 .debug_frame   0x00000000000004a4       0x40 ././main.o
 .debug_frame   0x00000000000004e4       0xe8 ././rtc.o
 .debug_frame   0x00000000000005cc      0x16c ././apppos.o
 .debug_frame   0x0000000000000738       0x58 ././rs232.o
 .debug_frame   0x0000000000000790      0x454 ././printer.o
 .debug_frame   0x0000000000000be4       0x78 ././utils.o
 .debug_frame   0x0000000000000c5c      0x2c4 ././key.o
 .debug_frame   0x0000000000000f20      0x118 ././modem.o
 .debug_frame   0x0000000000001038      0x148 ././flash.o
 .debug_frame   0x0000000000001180      0x258 ././htmlutil.o
 .debug_frame   0x00000000000013d8      0x100 ././hwtest.o
 .debug_frame   0x00000000000014d8      0x30c ././sfontlib.o
 .debug_frame   0x00000000000017e4      0x1ac ././gsm.o
 .debug_frame   0x0000000000001990       0x8c ././msr.o
 .debug_frame   0x0000000000001a1c       0x30 ../../lib/libe.a(_muldf3.o)
 .debug_frame   0x0000000000001a4c       0x40 ../../lib/libe.a(_adddf3.o)
 .debug_frame   0x0000000000001a8c       0x20 ../../lib/libe.a(_fixdfsi.o)
 .debug_frame   0x0000000000001aac       0x20 ../../lib/libe.a(_floatsidf.o)
 .debug_frame   0x0000000000001acc       0x50 ../../sdk/Bitel_Bitel.a(BITEL_TL.o)
 .debug_frame   0x0000000000001b1c      0x290 ../../sdk/Bitel_Bitel.a(CryptoLib.o)
 .debug_frame   0x0000000000001dac      0x340 ../../sdk/Bitel_Bitel.a(EMV_APP.o)
 .debug_frame   0x00000000000020ec      0x15c ../../sdk/Bitel_Bitel.a(EMV_CAT.o)
 .debug_frame   0x0000000000002248      0x4f0 ../../sdk/Bitel_Bitel.a(ISO8583.o)
 .debug_frame   0x0000000000002738       0xac ../../sdk/Bitel_Bitel.a(KEYLIB.o)
 .debug_frame   0x00000000000027e4      0x154 ../../sdk/Bitel_Bitel.a(KEYPAD.o)
 .debug_frame   0x0000000000002938      0x100 ../../sdk/Bitel_Bitel.a(LCDLIB.o)
 .debug_frame   0x0000000000002a38       0xbc ../../sdk/Bitel_Bitel.a(RTCLIB.o)
 .debug_frame   0x0000000000002af4       0xd4 ../../sdk/Bitel_Bitel.a(RTCLIB2.o)
 .debug_frame   0x0000000000002bc8       0x88 ../../sdk/Bitel_Bitel.a(TIMERLIB.o)
 .debug_frame   0x0000000000002c50       0x24 ../../sdk/Bitel_Bitel.a(UTILLIB.o)
 .debug_frame   0x0000000000002c74       0x20 ../../sdk/Bitel_Bitel.a(_ledf2.o)
 .debug_frame   0x0000000000002c94       0x20 ../../sdk/Bitel_Bitel.a(_orderdf2.o)
 .debug_frame   0x0000000000002cb4      0xea8 ../../sdk/Bitel_Bitel.a(asmutil.o)
 .debug_frame   0x0000000000003b5c      0x28c ../../sdk/Bitel_Bitel.a(emv_APDU.o)
 .debug_frame   0x0000000000003de8       0x28 ../../sdk/Bitel_Bitel.a(emv_init.o)
 .debug_frame   0x0000000000003e10       0xc4 ../../sdk/Bitel_Bitel.a(emv_power_up.o)
 .debug_frame   0x0000000000003ed4       0x28 ../../sdk/Bitel_Bitel.a(emv_set_slot_info.o)
 .debug_frame   0x0000000000003efc       0xbc ../../sdk/Bitel_Bitel.a(emv_t1.o)
 .debug_frame   0x0000000000003fb8       0x70 ../../sdk/Bitel_Bitel.a(emv_timer.o)
 .debug_frame   0x0000000000004028       0x2c ../../sdk/Bitel_Bitel.a(emv_transmit.o)
 .debug_frame   0x0000000000004054       0x50 ../../sdk/Bitel_Bitel.a(gem_TL.o)
 .debug_frame   0x00000000000040a4      0x17c ../../sdk/Bitel_Bitel.a(hal_apm.o)
 .debug_frame   0x0000000000004220      0x140 ../../sdk/Bitel_Bitel.a(hal_flash.o)
 .debug_frame   0x0000000000004360       0x7c ../../sdk/Bitel_Bitel.a(hal_intr.o)
 .debug_frame   0x00000000000043dc       0x4c ../../sdk/Bitel_Bitel.a(hal_libc.o)
 .debug_frame   0x0000000000004428       0x24 ../../sdk/Bitel_Bitel.a(hal_scs_attach.o)
 .debug_frame   0x000000000000444c       0x40 ../../sdk/Bitel_Bitel.a(hal_scs_cancel.o)
 .debug_frame   0x000000000000448c      0x14c ../../sdk/Bitel_Bitel.a(hal_scs_dev.o)
 .debug_frame   0x00000000000045d8       0x24 ../../sdk/Bitel_Bitel.a(hal_scs_get_last_error.o)
 .debug_frame   0x00000000000045fc       0x24 ../../sdk/Bitel_Bitel.a(hal_scs_get_slot_info.o)
 .debug_frame   0x0000000000004620       0x28 ../../sdk/Bitel_Bitel.a(hal_scs_get_status.o)
 .debug_frame   0x0000000000004648       0x28 ../../sdk/Bitel_Bitel.a(hal_scs_init.o)
 .debug_frame   0x0000000000004670       0x2c ../../sdk/Bitel_Bitel.a(hal_scs_ioctl.o)
 .debug_frame   0x000000000000469c       0x88 ../../sdk/Bitel_Bitel.a(hal_scs_isr.o)
 .debug_frame   0x0000000000004724       0x28 ../../sdk/Bitel_Bitel.a(hal_scs_power_down.o)
 .debug_frame   0x000000000000474c       0x28 ../../sdk/Bitel_Bitel.a(hal_scs_power_up.o)
 .debug_frame   0x0000000000004774       0x28 ../../sdk/Bitel_Bitel.a(hal_scs_pps_exchange.o)
 .debug_frame   0x000000000000479c       0x28 ../../sdk/Bitel_Bitel.a(hal_scs_set_config.o)
 .debug_frame   0x00000000000047c4       0x24 ../../sdk/Bitel_Bitel.a(hal_scs_set_slot_info.o)
 .debug_frame   0x00000000000047e8       0x28 ../../sdk/Bitel_Bitel.a(hal_scs_t1_block.o)
 .debug_frame   0x0000000000004810       0x84 ../../sdk/Bitel_Bitel.a(hal_scs_vsr_power_up.o)
 .debug_frame   0x0000000000004894       0x40 ../../sdk/Bitel_Bitel.a(hal_scs_vsr_pps_exchange.o)
 .debug_frame   0x00000000000048d4       0x40 ../../sdk/Bitel_Bitel.a(hal_scs_vsr_t1_block.o)
 .debug_frame   0x0000000000004914       0x74 ../../sdk/Bitel_Bitel.a(hal_sys_alloc.o)
 .debug_frame   0x0000000000004988       0xf8 ../../sdk/Bitel_Bitel.a(hal_timer.o)
 .debug_frame   0x0000000000004a80      0x2bc ../../sdk/Bitel_Bitel.a(libc.o)
 .debug_frame   0x0000000000004d3c      0x2e0 ../../sdk/Bitel_Bitel.a(ppdrv.o)
 .debug_frame   0x000000000000501c      0x234 ../../sdk/Bitel_Bitel.a(prtutil.o)
 .debug_frame   0x0000000000005250      0x2dc ../../sdk/Bitel_Bitel.a(r_enhanc.o)
 .debug_frame   0x000000000000552c       0x40 ../../sdk/Bitel_Bitel.a(r_keygen.o)
 .debug_frame   0x000000000000556c       0xc8 ../../sdk/Bitel_Bitel.a(r_random.o)
 .debug_frame   0x0000000000005634       0xa0 ../../sdk/Bitel_Bitel.a(rsa.o)
 .debug_frame   0x00000000000056d4       0xf8 ../../sdk/Bitel_Bitel.a(sc_at83c26.o)
 .debug_frame   0x00000000000057cc       0x94 ../../sdk/Bitel_Bitel.a(shsc.o)
 .debug_frame   0x0000000000005860      0x110 ../../sdk/Bitel_Bitel.a(DES_ECB.o)
 .debug_frame   0x0000000000005970       0x40 ../../sdk/Bitel_Bitel.a(FRMWRI.o)
 .debug_frame   0x00000000000059b0      0x208 ../../sdk/Bitel_Bitel.a(NN.o)
 .debug_frame   0x0000000000005bb8       0x20 ../../sdk/Bitel_Bitel.a(_divdf3.o)
 .debug_frame   0x0000000000005bd8       0x20 ../../sdk/Bitel_Bitel.a(_gedf2.o)
 .debug_frame   0x0000000000005bf8       0x20 ../../sdk/Bitel_Bitel.a(_ltdf2.o)
 .debug_frame   0x0000000000005c18       0x20 ../../sdk/Bitel_Bitel.a(_nedf2.o)
 .debug_frame   0x0000000000005c38      0x158 ../../sdk/Bitel_Bitel.a(at83c26_api.o)
 .debug_frame   0x0000000000005d90       0x58 ../../sdk/Bitel_Bitel.a(at83c26_lib.o)
 .debug_frame   0x0000000000005de8      0x130 ../../sdk/Bitel_Bitel.a(desc.o)
 .debug_frame   0x0000000000005f18       0x4c ../../sdk/Bitel_Bitel.a(emv_atr.o)
 .debug_frame   0x0000000000005f64       0x60 ../../sdk/Bitel_Bitel.a(emv_t0.o)
 .debug_frame   0x0000000000005fc4      0x12c ../../sdk/Bitel_Bitel.a(hal_i2c.o)
 .debug_frame   0x00000000000060f0       0x58 ../../sdk/Bitel_Bitel.a(hal_scs_analog.o)
 .debug_frame   0x0000000000006148       0x28 ../../sdk/Bitel_Bitel.a(hal_scs_clock.o)
 .debug_frame   0x0000000000006170       0xb0 ../../sdk/Bitel_Bitel.a(hal_scs_counter.o)
 .debug_frame   0x0000000000006220       0x58 ../../sdk/Bitel_Bitel.a(hal_scs_handler.o)
 .debug_frame   0x0000000000006278       0x28 ../../sdk/Bitel_Bitel.a(hal_scs_t0_in.o)
 .debug_frame   0x00000000000062a0       0x28 ../../sdk/Bitel_Bitel.a(hal_scs_t0_out.o)
 .debug_frame   0x00000000000062c8       0x40 ../../sdk/Bitel_Bitel.a(hal_scs_vsr_t0_in.o)
 .debug_frame   0x0000000000006308       0x40 ../../sdk/Bitel_Bitel.a(hal_scs_vsr_t0_out.o)
 .debug_frame   0x0000000000006348       0xd8 ../../sdk/Bitel_Bitel.a(lebRS232.o)
 .debug_frame   0x0000000000006420      0x154 ../../sdk/Bitel_Bitel.a(libEncryption.o)
 .debug_frame   0x0000000000006574       0xb0 ../../sdk/Bitel_Bitel.a(libPorts.o)
 .debug_frame   0x0000000000006624       0xf0 ../../sdk/Bitel_Bitel.a(lib_timer.o)
 .debug_frame   0x0000000000006714       0x70 ../../sdk/Bitel_Bitel.a(md2c.o)
 .debug_frame   0x0000000000006784       0x90 ../../sdk/Bitel_Bitel.a(md4c.o)
 .debug_frame   0x0000000000006814       0x40 ../../sdk/Bitel_Bitel.a(prime.o)
 .debug_frame   0x0000000000006854       0x50 ../../sdk/Bitel_Bitel.a(r_encode.o)
 .debug_frame   0x00000000000068a4       0x30 ../../sdk/Bitel_Bitel.a(_addsf3.o)
 .debug_frame   0x00000000000068d4       0x20 ../../sdk/Bitel_Bitel.a(_extendsfdf2.o)
 .debug_frame   0x00000000000068f4       0x20 ../../sdk/Bitel_Bitel.a(_fixsfsi.o)
 .debug_frame   0x0000000000006914       0x20 ../../sdk/Bitel_Bitel.a(_floatsisf.o)
 .debug_frame   0x0000000000006934       0x20 ../../sdk/Bitel_Bitel.a(_truncdfsf2.o)

.debug_pubnames
                0x0000000000000000     0x9dad
 .debug_pubnames
                0x0000000000000000      0x3b9 ././tmsdown.o
 .debug_pubnames
                0x00000000000003b9       0x33 ././timeconv.o
 .debug_pubnames
                0x00000000000003ec      0x5ee ././scard.o
 .debug_pubnames
                0x00000000000009da      0x128 ././main.o
 .debug_pubnames
                0x0000000000000b02       0x2e ././reftable.o
 .debug_pubnames
                0x0000000000000b30       0x35 ././prtmsg.o
 .debug_pubnames
                0x0000000000000b65      0x1aa ././rtc.o
 .debug_pubnames
                0x0000000000000d0f      0x5f7 ././apppos.o
 .debug_pubnames
                0x0000000000001306       0xc4 ././rs232.o
 .debug_pubnames
                0x00000000000013ca      0x4c3 ././printer.o
 .debug_pubnames
                0x000000000000188d      0x120 ././utils.o
 .debug_pubnames
                0x00000000000019ad      0x3fe ././key.o
 .debug_pubnames
                0x0000000000001dab       0x73 ././lcdmsg.o
 .debug_pubnames
                0x0000000000001e1e      0x220 ././modem.o
 .debug_pubnames
                0x000000000000203e      0x337 ././flash.o
 .debug_pubnames
                0x0000000000002375      0x2eb ././htmlutil.o
 .debug_pubnames
                0x0000000000002660      0x130 ././hwtest.o
 .debug_pubnames
                0x0000000000002790      0x225 ././sfontlib.o
 .debug_pubnames
                0x00000000000029b5      0x51b ././gsm.o
 .debug_pubnames
                0x0000000000002ed0      0x116 ././msr.o
 .debug_pubnames
                0x0000000000002fe6       0x1f ../../lib/libe.a(_muldf3.o)
 .debug_pubnames
                0x0000000000003005       0x2c ../../lib/libe.a(_adddf3.o)
 .debug_pubnames
                0x0000000000003031       0x20 ../../lib/libe.a(_fixdfsi.o)
 .debug_pubnames
                0x0000000000003051       0x22 ../../lib/libe.a(_floatsidf.o)
 .debug_pubnames
                0x0000000000003073       0xd2 ../../sdk/Bitel_Bitel.a(BITEL_TL.o)
 .debug_pubnames
                0x0000000000003145      0x2fd ../../sdk/Bitel_Bitel.a(CryptoLib.o)
 .debug_pubnames
                0x0000000000003442      0x506 ../../sdk/Bitel_Bitel.a(EMV_APP.o)
 .debug_pubnames
                0x0000000000003948      0x297 ../../sdk/Bitel_Bitel.a(EMV_CAT.o)
 .debug_pubnames
                0x0000000000003bdf      0x325 ../../sdk/Bitel_Bitel.a(ISO8583.o)
 .debug_pubnames
                0x0000000000003f04       0xb5 ../../sdk/Bitel_Bitel.a(KEYLIB.o)
 .debug_pubnames
                0x0000000000003fb9      0x1c9 ../../sdk/Bitel_Bitel.a(KEYPAD.o)
 .debug_pubnames
                0x0000000000004182       0xab ../../sdk/Bitel_Bitel.a(LCDLIB.o)
 .debug_pubnames
                0x000000000000422d       0xa9 ../../sdk/Bitel_Bitel.a(RTCLIB.o)
 .debug_pubnames
                0x00000000000042d6       0xfc ../../sdk/Bitel_Bitel.a(RTCLIB2.o)
 .debug_pubnames
                0x00000000000043d2       0x6f ../../sdk/Bitel_Bitel.a(TIMERLIB.o)
 .debug_pubnames
                0x0000000000004441       0x27 ../../sdk/Bitel_Bitel.a(UTILLIB.o)
 .debug_pubnames
                0x0000000000004468       0x1e ../../sdk/Bitel_Bitel.a(_ledf2.o)
 .debug_pubnames
                0x0000000000004486       0x21 ../../sdk/Bitel_Bitel.a(_orderdf2.o)
 .debug_pubnames
                0x00000000000044a7     0x1f32 ../../sdk/Bitel_Bitel.a(asmutil.o)
 .debug_pubnames
                0x00000000000063d9      0x35e ../../sdk/Bitel_Bitel.a(emv_APDU.o)
 .debug_pubnames
                0x0000000000006737       0x42 ../../sdk/Bitel_Bitel.a(emv_init.o)
 .debug_pubnames
                0x0000000000006779       0xad ../../sdk/Bitel_Bitel.a(emv_power_up.o)
 .debug_pubnames
                0x0000000000006826       0x28 ../../sdk/Bitel_Bitel.a(emv_set_slot_info.o)
 .debug_pubnames
                0x000000000000684e       0x61 ../../sdk/Bitel_Bitel.a(emv_t1.o)
 .debug_pubnames
                0x00000000000068af       0x75 ../../sdk/Bitel_Bitel.a(emv_timer.o)
 .debug_pubnames
                0x0000000000006924       0x23 ../../sdk/Bitel_Bitel.a(emv_transmit.o)
 .debug_pubnames
                0x0000000000006947       0x93 ../../sdk/Bitel_Bitel.a(gem_TL.o)
 .debug_pubnames
                0x00000000000069da      0x1ba ../../sdk/Bitel_Bitel.a(hal_apm.o)
 .debug_pubnames
                0x0000000000006b94      0x154 ../../sdk/Bitel_Bitel.a(hal_flash.o)
 .debug_pubnames
                0x0000000000006ce8       0x94 ../../sdk/Bitel_Bitel.a(hal_intr.o)
 .debug_pubnames
                0x0000000000006d7c       0x3f ../../sdk/Bitel_Bitel.a(hal_libc.o)
 .debug_pubnames
                0x0000000000006dbb       0x25 ../../sdk/Bitel_Bitel.a(hal_scs_attach.o)
 .debug_pubnames
                0x0000000000006de0       0x25 ../../sdk/Bitel_Bitel.a(hal_scs_cancel.o)
 .debug_pubnames
                0x0000000000006e05      0x16d ../../sdk/Bitel_Bitel.a(hal_scs_dev.o)
 .debug_pubnames
                0x0000000000006f72       0x2d ../../sdk/Bitel_Bitel.a(hal_scs_get_last_error.o)
 .debug_pubnames
                0x0000000000006f9f       0x2c ../../sdk/Bitel_Bitel.a(hal_scs_get_slot_info.o)
 .debug_pubnames
                0x0000000000006fcb       0x29 ../../sdk/Bitel_Bitel.a(hal_scs_get_status.o)
 .debug_pubnames
                0x0000000000006ff4       0x23 ../../sdk/Bitel_Bitel.a(hal_scs_init.o)
 .debug_pubnames
                0x0000000000007017       0x24 ../../sdk/Bitel_Bitel.a(hal_scs_ioctl.o)
 .debug_pubnames
                0x000000000000703b       0x55 ../../sdk/Bitel_Bitel.a(hal_scs_isr.o)
 .debug_pubnames
                0x0000000000007090       0x29 ../../sdk/Bitel_Bitel.a(hal_scs_power_down.o)
 .debug_pubnames
                0x00000000000070b9       0x27 ../../sdk/Bitel_Bitel.a(hal_scs_power_up.o)
 .debug_pubnames
                0x00000000000070e0       0x2b ../../sdk/Bitel_Bitel.a(hal_scs_pps_exchange.o)
 .debug_pubnames
                0x000000000000710b       0x29 ../../sdk/Bitel_Bitel.a(hal_scs_set_config.o)
 .debug_pubnames
                0x0000000000007134       0x2c ../../sdk/Bitel_Bitel.a(hal_scs_set_slot_info.o)
 .debug_pubnames
                0x0000000000007160       0x27 ../../sdk/Bitel_Bitel.a(hal_scs_t1_block.o)
 .debug_pubnames
                0x0000000000007187       0x84 ../../sdk/Bitel_Bitel.a(hal_scs_vsr_power_up.o)
 .debug_pubnames
                0x000000000000720b       0x2f ../../sdk/Bitel_Bitel.a(hal_scs_vsr_pps_exchange.o)
 .debug_pubnames
                0x000000000000723a       0x45 ../../sdk/Bitel_Bitel.a(hal_scs_vsr_t1_block.o)
 .debug_pubnames
                0x000000000000727f       0xa8 ../../sdk/Bitel_Bitel.a(hal_sys_alloc.o)
 .debug_pubnames
                0x0000000000007327      0x13a ../../sdk/Bitel_Bitel.a(hal_timer.o)
 .debug_pubnames
                0x0000000000007461      0x486 ../../sdk/Bitel_Bitel.a(libc.o)
 .debug_pubnames
                0x00000000000078e7      0x28c ../../sdk/Bitel_Bitel.a(ppdrv.o)
 .debug_pubnames
                0x0000000000007b73      0x357 ../../sdk/Bitel_Bitel.a(prtutil.o)
 .debug_pubnames
                0x0000000000007eca      0x1ef ../../sdk/Bitel_Bitel.a(r_enhanc.o)
 .debug_pubnames
                0x00000000000080b9       0x28 ../../sdk/Bitel_Bitel.a(r_keygen.o)
 .debug_pubnames
                0x00000000000080e1       0x9a ../../sdk/Bitel_Bitel.a(r_random.o)
 .debug_pubnames
                0x000000000000817b       0x9b ../../sdk/Bitel_Bitel.a(rsa.o)
 .debug_pubnames
                0x0000000000008216      0x152 ../../sdk/Bitel_Bitel.a(sc_at83c26.o)
 .debug_pubnames
                0x0000000000008368       0x57 ../../sdk/Bitel_Bitel.a(shsc.o)
 .debug_pubnames
                0x00000000000083bf       0x1a ../../sdk/Bitel_Bitel.a(DES_ECB.o)
 .debug_pubnames
                0x00000000000083d9       0x2f ../../sdk/Bitel_Bitel.a(FRMWRI.o)
 .debug_pubnames
                0x0000000000008408      0x11b ../../sdk/Bitel_Bitel.a(NN.o)
 .debug_pubnames
                0x0000000000008523       0x1f ../../sdk/Bitel_Bitel.a(_divdf3.o)
 .debug_pubnames
                0x0000000000008542       0x1e ../../sdk/Bitel_Bitel.a(_gedf2.o)
 .debug_pubnames
                0x0000000000008560       0x1e ../../sdk/Bitel_Bitel.a(_ltdf2.o)
 .debug_pubnames
                0x000000000000857e       0x1e ../../sdk/Bitel_Bitel.a(_nedf2.o)
 .debug_pubnames
                0x000000000000859c      0x167 ../../sdk/Bitel_Bitel.a(at83c26_api.o)
 .debug_pubnames
                0x0000000000008703       0x5a ../../sdk/Bitel_Bitel.a(at83c26_lib.o)
 .debug_pubnames
                0x000000000000875d       0xf2 ../../sdk/Bitel_Bitel.a(desc.o)
 .debug_pubnames
                0x000000000000884f       0x53 ../../sdk/Bitel_Bitel.a(emv_atr.o)
 .debug_pubnames
                0x00000000000088a2       0x39 ../../sdk/Bitel_Bitel.a(emv_t0.o)
 .debug_pubnames
                0x00000000000088db      0x116 ../../sdk/Bitel_Bitel.a(hal_i2c.o)
 .debug_pubnames
                0x00000000000089f1       0x6d ../../sdk/Bitel_Bitel.a(hal_scs_analog.o)
 .debug_pubnames
                0x0000000000008a5e       0x28 ../../sdk/Bitel_Bitel.a(hal_scs_clock.o)
 .debug_pubnames
                0x0000000000008a86       0xf1 ../../sdk/Bitel_Bitel.a(hal_scs_counter.o)
 .debug_pubnames
                0x0000000000008b77       0x5e ../../sdk/Bitel_Bitel.a(hal_scs_handler.o)
 .debug_pubnames
                0x0000000000008bd5       0x24 ../../sdk/Bitel_Bitel.a(hal_scs_t0_in.o)
 .debug_pubnames
                0x0000000000008bf9       0x25 ../../sdk/Bitel_Bitel.a(hal_scs_t0_out.o)
 .debug_pubnames
                0x0000000000008c1e       0x28 ../../sdk/Bitel_Bitel.a(hal_scs_vsr_t0_in.o)
 .debug_pubnames
                0x0000000000008c46       0x29 ../../sdk/Bitel_Bitel.a(hal_scs_vsr_t0_out.o)
 .debug_pubnames
                0x0000000000008c6f      0x3b9 ../../sdk/Bitel_Bitel.a(lebRS232.o)
 .debug_pubnames
                0x0000000000009028      0x44e ../../sdk/Bitel_Bitel.a(libEncryption.o)
 .debug_pubnames
                0x0000000000009476      0x377 ../../sdk/Bitel_Bitel.a(libPorts.o)
 .debug_pubnames
                0x00000000000097ed      0x41b ../../sdk/Bitel_Bitel.a(lib_timer.o)
 .debug_pubnames
                0x0000000000009c08       0x39 ../../sdk/Bitel_Bitel.a(md2c.o)
 .debug_pubnames
                0x0000000000009c41       0x39 ../../sdk/Bitel_Bitel.a(md4c.o)
 .debug_pubnames
                0x0000000000009c7a       0x24 ../../sdk/Bitel_Bitel.a(prime.o)
 .debug_pubnames
                0x0000000000009c9e       0x1e ../../sdk/Bitel_Bitel.a(prtfont.o)
 .debug_pubnames
                0x0000000000009cbc       0x3c ../../sdk/Bitel_Bitel.a(r_encode.o)
 .debug_pubnames
                0x0000000000009cf8       0x2c ../../sdk/Bitel_Bitel.a(_addsf3.o)
 .debug_pubnames
                0x0000000000009d24       0x24 ../../sdk/Bitel_Bitel.a(_extendsfdf2.o)
 .debug_pubnames
                0x0000000000009d48       0x20 ../../sdk/Bitel_Bitel.a(_fixsfsi.o)
 .debug_pubnames
                0x0000000000009d68       0x22 ../../sdk/Bitel_Bitel.a(_floatsisf.o)
 .debug_pubnames
                0x0000000000009d8a       0x23 ../../sdk/Bitel_Bitel.a(_truncdfsf2.o)

.debug_aranges  0x0000000000000000     0x1490
 .debug_aranges
                0x0000000000000000       0x20 ././tmsdown.o
 .debug_aranges
                0x0000000000000020       0x20 ././timeconv.o
 .debug_aranges
                0x0000000000000040       0x20 ././scard.o
 .debug_aranges
                0x0000000000000060       0x20 ././main.o
 .debug_aranges
                0x0000000000000080       0x20 ././rtc.o
 .debug_aranges
                0x00000000000000a0       0x20 ././apppos.o
 .debug_aranges
                0x00000000000000c0       0x20 ././rs232.o
 .debug_aranges
                0x00000000000000e0       0x20 ././printer.o
 .debug_aranges
                0x0000000000000100       0x20 ././utils.o
 .debug_aranges
                0x0000000000000120       0x20 ././key.o
 .debug_aranges
                0x0000000000000140       0x20 ././modem.o
 .debug_aranges
                0x0000000000000160       0x20 ././flash.o
 .debug_aranges
                0x0000000000000180       0x20 ././htmlutil.o
 .debug_aranges
                0x00000000000001a0       0x20 ././hwtest.o
 .debug_aranges
                0x00000000000001c0       0x20 ././sfontlib.o
 .debug_aranges
                0x00000000000001e0       0x20 ././gsm.o
 .debug_aranges
                0x0000000000000200       0x20 ././msr.o
 .debug_aranges
                0x0000000000000220       0x20 ../../lib/libe.a(_muldf3.o)
 .debug_aranges
                0x0000000000000240       0x20 ../../lib/libe.a(_adddf3.o)
 .debug_aranges
                0x0000000000000260       0x20 ../../lib/libe.a(_fixdfsi.o)
 .debug_aranges
                0x0000000000000280       0x20 ../../lib/libe.a(_floatsidf.o)
 .debug_aranges
                0x00000000000002a0       0x20 ../../sdk/Bitel_Bitel.a(BITEL_TL.o)
 .debug_aranges
                0x00000000000002c0       0x20 ../../sdk/Bitel_Bitel.a(CryptoLib.o)
 .debug_aranges
                0x00000000000002e0       0x20 ../../sdk/Bitel_Bitel.a(EMV_APP.o)
 .debug_aranges
                0x0000000000000300       0x20 ../../sdk/Bitel_Bitel.a(EMV_CAT.o)
 .debug_aranges
                0x0000000000000320       0x20 ../../sdk/Bitel_Bitel.a(ISO8583.o)
 .debug_aranges
                0x0000000000000340       0x20 ../../sdk/Bitel_Bitel.a(KEYLIB.o)
 .debug_aranges
                0x0000000000000360       0x20 ../../sdk/Bitel_Bitel.a(KEYPAD.o)
 .debug_aranges
                0x0000000000000380       0x20 ../../sdk/Bitel_Bitel.a(LCDLIB.o)
 .debug_aranges
                0x00000000000003a0       0x20 ../../sdk/Bitel_Bitel.a(RTCLIB.o)
 .debug_aranges
                0x00000000000003c0       0x20 ../../sdk/Bitel_Bitel.a(RTCLIB2.o)
 .debug_aranges
                0x00000000000003e0       0x20 ../../sdk/Bitel_Bitel.a(TIMERLIB.o)
 .debug_aranges
                0x0000000000000400       0x20 ../../sdk/Bitel_Bitel.a(UTILLIB.o)
 .debug_aranges
                0x0000000000000420       0x20 ../../sdk/Bitel_Bitel.a(_ledf2.o)
 .debug_aranges
                0x0000000000000440       0x20 ../../sdk/Bitel_Bitel.a(_orderdf2.o)
 .debug_aranges
                0x0000000000000460      0x5f0 ../../sdk/Bitel_Bitel.a(asmutil.o)
 .debug_aranges
                0x0000000000000a50       0x20 ../../sdk/Bitel_Bitel.a(emv_APDU.o)
 .debug_aranges
                0x0000000000000a70       0x20 ../../sdk/Bitel_Bitel.a(emv_init.o)
 .debug_aranges
                0x0000000000000a90       0x20 ../../sdk/Bitel_Bitel.a(emv_power_up.o)
 .debug_aranges
                0x0000000000000ab0       0x20 ../../sdk/Bitel_Bitel.a(emv_set_slot_info.o)
 .debug_aranges
                0x0000000000000ad0       0x20 ../../sdk/Bitel_Bitel.a(emv_t1.o)
 .debug_aranges
                0x0000000000000af0       0x20 ../../sdk/Bitel_Bitel.a(emv_timer.o)
 .debug_aranges
                0x0000000000000b10       0x20 ../../sdk/Bitel_Bitel.a(emv_transmit.o)
 .debug_aranges
                0x0000000000000b30       0x20 ../../sdk/Bitel_Bitel.a(gem_TL.o)
 .debug_aranges
                0x0000000000000b50       0x20 ../../sdk/Bitel_Bitel.a(hal_apm.o)
 .debug_aranges
                0x0000000000000b70       0x20 ../../sdk/Bitel_Bitel.a(hal_flash.o)
 .debug_aranges
                0x0000000000000b90       0x20 ../../sdk/Bitel_Bitel.a(hal_intr.o)
 .debug_aranges
                0x0000000000000bb0       0x20 ../../sdk/Bitel_Bitel.a(hal_libc.o)
 .debug_aranges
                0x0000000000000bd0       0x20 ../../sdk/Bitel_Bitel.a(hal_scs_attach.o)
 .debug_aranges
                0x0000000000000bf0       0x20 ../../sdk/Bitel_Bitel.a(hal_scs_cancel.o)
 .debug_aranges
                0x0000000000000c10       0x20 ../../sdk/Bitel_Bitel.a(hal_scs_dev.o)
 .debug_aranges
                0x0000000000000c30       0x20 ../../sdk/Bitel_Bitel.a(hal_scs_get_last_error.o)
 .debug_aranges
                0x0000000000000c50       0x20 ../../sdk/Bitel_Bitel.a(hal_scs_get_slot_info.o)
 .debug_aranges
                0x0000000000000c70       0x20 ../../sdk/Bitel_Bitel.a(hal_scs_get_status.o)
 .debug_aranges
                0x0000000000000c90       0x20 ../../sdk/Bitel_Bitel.a(hal_scs_init.o)
 .debug_aranges
                0x0000000000000cb0       0x20 ../../sdk/Bitel_Bitel.a(hal_scs_ioctl.o)
 .debug_aranges
                0x0000000000000cd0       0x20 ../../sdk/Bitel_Bitel.a(hal_scs_isr.o)
 .debug_aranges
                0x0000000000000cf0       0x20 ../../sdk/Bitel_Bitel.a(hal_scs_power_down.o)
 .debug_aranges
                0x0000000000000d10       0x20 ../../sdk/Bitel_Bitel.a(hal_scs_power_up.o)
 .debug_aranges
                0x0000000000000d30       0x20 ../../sdk/Bitel_Bitel.a(hal_scs_pps_exchange.o)
 .debug_aranges
                0x0000000000000d50       0x20 ../../sdk/Bitel_Bitel.a(hal_scs_set_config.o)
 .debug_aranges
                0x0000000000000d70       0x20 ../../sdk/Bitel_Bitel.a(hal_scs_set_slot_info.o)
 .debug_aranges
                0x0000000000000d90       0x20 ../../sdk/Bitel_Bitel.a(hal_scs_t1_block.o)
 .debug_aranges
                0x0000000000000db0       0x20 ../../sdk/Bitel_Bitel.a(hal_scs_vsr_power_up.o)
 .debug_aranges
                0x0000000000000dd0       0x20 ../../sdk/Bitel_Bitel.a(hal_scs_vsr_pps_exchange.o)
 .debug_aranges
                0x0000000000000df0       0x20 ../../sdk/Bitel_Bitel.a(hal_scs_vsr_t1_block.o)
 .debug_aranges
                0x0000000000000e10       0x20 ../../sdk/Bitel_Bitel.a(hal_sys_alloc.o)
 .debug_aranges
                0x0000000000000e30       0x20 ../../sdk/Bitel_Bitel.a(hal_timer.o)
 .debug_aranges
                0x0000000000000e50       0x20 ../../sdk/Bitel_Bitel.a(libc.o)
 .debug_aranges
                0x0000000000000e70       0x20 ../../sdk/Bitel_Bitel.a(ppdrv.o)
 .debug_aranges
                0x0000000000000e90      0x100 ../../sdk/Bitel_Bitel.a(prtutil.o)
 .debug_aranges
                0x0000000000000f90       0x20 ../../sdk/Bitel_Bitel.a(r_enhanc.o)
 .debug_aranges
                0x0000000000000fb0       0x20 ../../sdk/Bitel_Bitel.a(r_keygen.o)
 .debug_aranges
                0x0000000000000fd0       0x20 ../../sdk/Bitel_Bitel.a(r_random.o)
 .debug_aranges
                0x0000000000000ff0       0x20 ../../sdk/Bitel_Bitel.a(rsa.o)
 .debug_aranges
                0x0000000000001010       0x20 ../../sdk/Bitel_Bitel.a(sc_at83c26.o)
 .debug_aranges
                0x0000000000001030       0x20 ../../sdk/Bitel_Bitel.a(shsc.o)
 .debug_aranges
                0x0000000000001050       0x20 ../../sdk/Bitel_Bitel.a(DES_ECB.o)
 .debug_aranges
                0x0000000000001070       0x20 ../../sdk/Bitel_Bitel.a(FRMWRI.o)
 .debug_aranges
                0x0000000000001090       0x20 ../../sdk/Bitel_Bitel.a(NN.o)
 .debug_aranges
                0x00000000000010b0       0x20 ../../sdk/Bitel_Bitel.a(_divdf3.o)
 .debug_aranges
                0x00000000000010d0       0x20 ../../sdk/Bitel_Bitel.a(_gedf2.o)
 .debug_aranges
                0x00000000000010f0       0x20 ../../sdk/Bitel_Bitel.a(_ltdf2.o)
 .debug_aranges
                0x0000000000001110       0x20 ../../sdk/Bitel_Bitel.a(_nedf2.o)
 .debug_aranges
                0x0000000000001130       0x20 ../../sdk/Bitel_Bitel.a(at83c26_api.o)
 .debug_aranges
                0x0000000000001150       0x20 ../../sdk/Bitel_Bitel.a(at83c26_lib.o)
 .debug_aranges
                0x0000000000001170       0x20 ../../sdk/Bitel_Bitel.a(desc.o)
 .debug_aranges
                0x0000000000001190       0x20 ../../sdk/Bitel_Bitel.a(emv_atr.o)
 .debug_aranges
                0x00000000000011b0       0x20 ../../sdk/Bitel_Bitel.a(emv_t0.o)
 .debug_aranges
                0x00000000000011d0       0x20 ../../sdk/Bitel_Bitel.a(hal_i2c.o)
 .debug_aranges
                0x00000000000011f0       0x20 ../../sdk/Bitel_Bitel.a(hal_scs_analog.o)
 .debug_aranges
                0x0000000000001210       0x20 ../../sdk/Bitel_Bitel.a(hal_scs_clock.o)
 .debug_aranges
                0x0000000000001230       0x20 ../../sdk/Bitel_Bitel.a(hal_scs_counter.o)
 .debug_aranges
                0x0000000000001250       0x20 ../../sdk/Bitel_Bitel.a(hal_scs_handler.o)
 .debug_aranges
                0x0000000000001270       0x20 ../../sdk/Bitel_Bitel.a(hal_scs_t0_in.o)
 .debug_aranges
                0x0000000000001290       0x20 ../../sdk/Bitel_Bitel.a(hal_scs_t0_out.o)
 .debug_aranges
                0x00000000000012b0       0x20 ../../sdk/Bitel_Bitel.a(hal_scs_vsr_t0_in.o)
 .debug_aranges
                0x00000000000012d0       0x20 ../../sdk/Bitel_Bitel.a(hal_scs_vsr_t0_out.o)
 .debug_aranges
                0x00000000000012f0       0x20 ../../sdk/Bitel_Bitel.a(lebRS232.o)
 .debug_aranges
                0x0000000000001310       0x20 ../../sdk/Bitel_Bitel.a(libEncryption.o)
 .debug_aranges
                0x0000000000001330       0x20 ../../sdk/Bitel_Bitel.a(libPorts.o)
 .debug_aranges
                0x0000000000001350       0x20 ../../sdk/Bitel_Bitel.a(lib_timer.o)
 .debug_aranges
                0x0000000000001370       0x20 ../../sdk/Bitel_Bitel.a(md2c.o)
 .debug_aranges
                0x0000000000001390       0x20 ../../sdk/Bitel_Bitel.a(md4c.o)
 .debug_aranges
                0x00000000000013b0       0x20 ../../sdk/Bitel_Bitel.a(prime.o)
 .debug_aranges
                0x00000000000013d0       0x20 ../../sdk/Bitel_Bitel.a(r_encode.o)
 .debug_aranges
                0x00000000000013f0       0x20 ../../sdk/Bitel_Bitel.a(_addsf3.o)
 .debug_aranges
                0x0000000000001410       0x20 ../../sdk/Bitel_Bitel.a(_extendsfdf2.o)
 .debug_aranges
                0x0000000000001430       0x20 ../../sdk/Bitel_Bitel.a(_fixsfsi.o)
 .debug_aranges
                0x0000000000001450       0x20 ../../sdk/Bitel_Bitel.a(_floatsisf.o)
 .debug_aranges
                0x0000000000001470       0x20 ../../sdk/Bitel_Bitel.a(_truncdfsf2.o)

.debug_str      0x0000000000000000     0x1d70
 .debug_str     0x0000000000000000       0x59 ././tmsdown.o
 .debug_str     0x0000000000000059       0x12 ././timeconv.o
 .debug_str     0x000000000000006b       0xec ././scard.o
 .debug_str     0x0000000000000157      0x1fa ././main.o
 .debug_str     0x0000000000000351       0x12 ././prtmsg.o
 .debug_str     0x0000000000000363       0x5f ././rtc.o
 .debug_str     0x00000000000003c2      0x215 ././apppos.o
 .debug_str     0x00000000000005d7       0x12 ././rs232.o
 .debug_str     0x00000000000005e9      0x217 ././printer.o
 .debug_str     0x0000000000000800       0x59 ././utils.o
 .debug_str     0x0000000000000859      0x24b ././key.o
 .debug_str     0x0000000000000aa4       0x12 ././lcdmsg.o
 .debug_str     0x0000000000000ab6      0x1e4 ././modem.o
 .debug_str     0x0000000000000c9a       0x79 ././flash.o
 .debug_str     0x0000000000000d13       0xa3 ././htmlutil.o
 .debug_str     0x0000000000000db6       0x12 ././hwtest.o
 .debug_str     0x0000000000000dc8       0xbd ././sfontlib.o
 .debug_str     0x0000000000000e85      0x129 ././gsm.o
 .debug_str     0x0000000000000fae       0x12 ././msr.o
 .debug_str     0x0000000000000fc0       0x72 ../../lib/libe.a(_muldf3.o)
 .debug_str     0x0000000000001032       0x12 ../../lib/libe.a(_adddf3.o)
                                         0x7b (size before relaxing)
 .debug_str     0x0000000000001044        0xa ../../lib/libe.a(_fixdfsi.o)
                                         0x73 (size before relaxing)
 .debug_str     0x000000000000104e        0xc ../../lib/libe.a(_floatsidf.o)
                                         0x75 (size before relaxing)
 .debug_str     0x000000000000105a       0x12 ../../sdk/Bitel_Bitel.a(BITEL_TL.o)
 .debug_str     0x000000000000106c       0xa0 ../../sdk/Bitel_Bitel.a(CryptoLib.o)
 .debug_str     0x000000000000110c       0x48 ../../sdk/Bitel_Bitel.a(EMV_APP.o)
 .debug_str     0x0000000000001154       0x27 ../../sdk/Bitel_Bitel.a(EMV_CAT.o)
 .debug_str     0x000000000000117b       0x63 ../../sdk/Bitel_Bitel.a(ISO8583.o)
 .debug_str     0x00000000000011de       0x27 ../../sdk/Bitel_Bitel.a(KEYLIB.o)
 .debug_str     0x0000000000001205       0x9e ../../sdk/Bitel_Bitel.a(KEYPAD.o)
 .debug_str     0x00000000000012a3       0x1c ../../sdk/Bitel_Bitel.a(LCDLIB.o)
 .debug_str     0x00000000000012bf       0x39 ../../sdk/Bitel_Bitel.a(RTCLIB.o)
 .debug_str     0x00000000000012f8       0x39 ../../sdk/Bitel_Bitel.a(RTCLIB2.o)
 .debug_str     0x0000000000001331       0x12 ../../sdk/Bitel_Bitel.a(TIMERLIB.o)
 .debug_str     0x0000000000001343       0x12 ../../sdk/Bitel_Bitel.a(UTILLIB.o)
 .debug_str     0x0000000000001355       0x13 ../../sdk/Bitel_Bitel.a(_ledf2.o)
                                         0x7c (size before relaxing)
 .debug_str     0x0000000000001368        0x0 ../../sdk/Bitel_Bitel.a(_orderdf2.o)
                                         0x74 (size before relaxing)
 .debug_str     0x0000000000001368       0x7e ../../sdk/Bitel_Bitel.a(asmutil.o)
 .debug_str     0x00000000000013e6       0x30 ../../sdk/Bitel_Bitel.a(emv_APDU.o)
 .debug_str     0x0000000000001416       0x24 ../../sdk/Bitel_Bitel.a(emv_init.o)
 .debug_str     0x000000000000143a       0x4d ../../sdk/Bitel_Bitel.a(emv_power_up.o)
 .debug_str     0x0000000000001487       0x1b ../../sdk/Bitel_Bitel.a(emv_set_slot_info.o)
 .debug_str     0x00000000000014a2       0x43 ../../sdk/Bitel_Bitel.a(emv_t1.o)
 .debug_str     0x00000000000014e5       0x23 ../../sdk/Bitel_Bitel.a(emv_timer.o)
 .debug_str     0x0000000000001508       0x12 ../../sdk/Bitel_Bitel.a(emv_transmit.o)
 .debug_str     0x000000000000151a       0x12 ../../sdk/Bitel_Bitel.a(gem_TL.o)
 .debug_str     0x000000000000152c        0xc ../../sdk/Bitel_Bitel.a(hal_apm.o)
 .debug_str     0x0000000000001538       0x29 ../../sdk/Bitel_Bitel.a(hal_flash.o)
 .debug_str     0x0000000000001561        0x7 ../../sdk/Bitel_Bitel.a(hal_intr.o)
 .debug_str     0x0000000000001568        0xb ../../sdk/Bitel_Bitel.a(hal_scs_dev.o)
 .debug_str     0x0000000000001573        0x9 ../../sdk/Bitel_Bitel.a(hal_scs_get_slot_info.o)
 .debug_str     0x000000000000157c       0x1b ../../sdk/Bitel_Bitel.a(hal_scs_init.o)
 .debug_str     0x0000000000001597       0x12 ../../sdk/Bitel_Bitel.a(hal_scs_ioctl.o)
 .debug_str     0x00000000000015a9        0x7 ../../sdk/Bitel_Bitel.a(hal_scs_isr.o)
 .debug_str     0x00000000000015b0       0x12 ../../sdk/Bitel_Bitel.a(hal_scs_power_down.o)
 .debug_str     0x00000000000015c2       0x12 ../../sdk/Bitel_Bitel.a(hal_scs_power_up.o)
 .debug_str     0x00000000000015d4       0x12 ../../sdk/Bitel_Bitel.a(hal_scs_pps_exchange.o)
 .debug_str     0x00000000000015e6        0x9 ../../sdk/Bitel_Bitel.a(hal_scs_set_config.o)
 .debug_str     0x00000000000015ef       0x1b ../../sdk/Bitel_Bitel.a(hal_scs_set_slot_info.o)
 .debug_str     0x000000000000160a       0x12 ../../sdk/Bitel_Bitel.a(hal_scs_t1_block.o)
 .debug_str     0x000000000000161c       0x27 ../../sdk/Bitel_Bitel.a(hal_scs_vsr_power_up.o)
 .debug_str     0x0000000000001643       0x1f ../../sdk/Bitel_Bitel.a(hal_timer.o)
 .debug_str     0x0000000000001662       0x18 ../../sdk/Bitel_Bitel.a(libc.o)
 .debug_str     0x000000000000167a       0x26 ../../sdk/Bitel_Bitel.a(ppdrv.o)
 .debug_str     0x00000000000016a0       0x1c ../../sdk/Bitel_Bitel.a(prtutil.o)
 .debug_str     0x00000000000016bc      0x236 ../../sdk/Bitel_Bitel.a(r_enhanc.o)
 .debug_str     0x00000000000018f2       0x1b ../../sdk/Bitel_Bitel.a(r_keygen.o)
 .debug_str     0x000000000000190d       0x2d ../../sdk/Bitel_Bitel.a(r_random.o)
 .debug_str     0x000000000000193a       0x79 ../../sdk/Bitel_Bitel.a(rsa.o)
 .debug_str     0x00000000000019b3       0x2a ../../sdk/Bitel_Bitel.a(sc_at83c26.o)
 .debug_str     0x00000000000019dd       0x1a ../../sdk/Bitel_Bitel.a(shsc.o)
 .debug_str     0x00000000000019f7       0x32 ../../sdk/Bitel_Bitel.a(DES_ECB.o)
 .debug_str     0x0000000000001a29       0x39 ../../sdk/Bitel_Bitel.a(FRMWRI.o)
 .debug_str     0x0000000000001a62       0x27 ../../sdk/Bitel_Bitel.a(NN.o)
 .debug_str     0x0000000000001a89        0x9 ../../sdk/Bitel_Bitel.a(_divdf3.o)
                                         0x72 (size before relaxing)
 .debug_str     0x0000000000001a92        0x8 ../../sdk/Bitel_Bitel.a(_gedf2.o)
                                         0x7c (size before relaxing)
 .debug_str     0x0000000000001a9a        0x8 ../../sdk/Bitel_Bitel.a(_ltdf2.o)
                                         0x7c (size before relaxing)
 .debug_str     0x0000000000001aa2        0x8 ../../sdk/Bitel_Bitel.a(_nedf2.o)
                                         0x7c (size before relaxing)
 .debug_str     0x0000000000001aaa       0x21 ../../sdk/Bitel_Bitel.a(at83c26_api.o)
 .debug_str     0x0000000000001acb       0x19 ../../sdk/Bitel_Bitel.a(at83c26_lib.o)
 .debug_str     0x0000000000001ae4       0x47 ../../sdk/Bitel_Bitel.a(desc.o)
 .debug_str     0x0000000000001b2b       0x2b ../../sdk/Bitel_Bitel.a(emv_atr.o)
 .debug_str     0x0000000000001b56       0x2e ../../sdk/Bitel_Bitel.a(emv_t0.o)
 .debug_str     0x0000000000001b84       0x5d ../../sdk/Bitel_Bitel.a(hal_i2c.o)
 .debug_str     0x0000000000001be1        0xe ../../sdk/Bitel_Bitel.a(hal_scs_analog.o)
 .debug_str     0x0000000000001bef       0x12 ../../sdk/Bitel_Bitel.a(hal_scs_t0_in.o)
 .debug_str     0x0000000000001c01       0x12 ../../sdk/Bitel_Bitel.a(hal_scs_t0_out.o)
 .debug_str     0x0000000000001c13       0x12 ../../sdk/Bitel_Bitel.a(hal_scs_vsr_t0_in.o)
 .debug_str     0x0000000000001c25       0x22 ../../sdk/Bitel_Bitel.a(lebRS232.o)
 .debug_str     0x0000000000001c47       0x42 ../../sdk/Bitel_Bitel.a(libEncryption.o)
 .debug_str     0x0000000000001c89       0x12 ../../sdk/Bitel_Bitel.a(libPorts.o)
 .debug_str     0x0000000000001c9b       0x31 ../../sdk/Bitel_Bitel.a(lib_timer.o)
 .debug_str     0x0000000000001ccc       0x23 ../../sdk/Bitel_Bitel.a(md2c.o)
 .debug_str     0x0000000000001cef       0x1a ../../sdk/Bitel_Bitel.a(md4c.o)
 .debug_str     0x0000000000001d09       0x12 ../../sdk/Bitel_Bitel.a(prime.o)
 .debug_str     0x0000000000001d1b       0x12 ../../sdk/Bitel_Bitel.a(r_encode.o)
 .debug_str     0x0000000000001d2d       0x12 ../../sdk/Bitel_Bitel.a(_addsf3.o)
                                         0x7b (size before relaxing)
 .debug_str     0x0000000000001d3f        0xe ../../sdk/Bitel_Bitel.a(_extendsfdf2.o)
                                         0x77 (size before relaxing)
 .debug_str     0x0000000000001d4d        0xa ../../sdk/Bitel_Bitel.a(_fixsfsi.o)
                                         0x73 (size before relaxing)
 .debug_str     0x0000000000001d57        0xc ../../sdk/Bitel_Bitel.a(_floatsisf.o)
                                         0x75 (size before relaxing)
 .debug_str     0x0000000000001d63        0xd ../../sdk/Bitel_Bitel.a(_truncdfsf2.o)
                                         0x76 (size before relaxing)

.comment        0x0000000000000000     0x2918
 .comment       0x0000000000000000       0x2b ././tmsdown.o
 .comment       0x000000000000002b       0x2b ././timeconv.o
 .comment       0x0000000000000056       0x2b ././scard.o
 .comment       0x0000000000000081       0x2b ././main.o
 .comment       0x00000000000000ac       0x2b ././reftable.o
 .comment       0x00000000000000d7       0x2b ././prtmsg.o
 .comment       0x0000000000000102       0x2b ././rtc.o
 .comment       0x000000000000012d       0x2b ././apppos.o
 .comment       0x0000000000000158       0x2b ././rs232.o
 .comment       0x0000000000000183       0x2b ././printer.o
 .comment       0x00000000000001ae       0x2b ././utils.o
 .comment       0x00000000000001d9       0x2b ././key.o
 .comment       0x0000000000000204       0x2b ././lcdmsg.o
 .comment       0x000000000000022f       0x2b ././modem.o
 .comment       0x000000000000025a       0x2b ././flash.o
 .comment       0x0000000000000285       0x2b ././htmlutil.o
 .comment       0x00000000000002b0       0x2b ././hwtest.o
 .comment       0x00000000000002db       0x2b ././sfontlib.o
 .comment       0x0000000000000306       0x2b ././gsm.o
 .comment       0x0000000000000331       0x2b ././msr.o
 .comment       0x000000000000035c       0x56 ../../lib/libc.a(memcmp.o)
 .comment       0x00000000000003b2       0x56 ../../lib/libc.a(memset.o)
 .comment       0x0000000000000408       0x56 ../../lib/libc.a(strcmp.o)
 .comment       0x000000000000045e       0x56 ../../lib/libc.a(strcpy.o)
 .comment       0x00000000000004b4       0x56 ../../lib/libc.a(strlen.o)
 .comment       0x000000000000050a       0x7a ../../lib/libc.a(strcat.o)
 .comment       0x0000000000000584       0x7b ../../lib/libc.a(strncmp.o)
 .comment       0x00000000000005ff       0x7b ../../lib/libc.a(strncpy.o)
 .comment       0x000000000000067a       0x7a ../../lib/libc.a(strchr.o)
 .comment       0x00000000000006f4       0x7a ../../lib/libc.a(strstr.o)
 .comment       0x000000000000076e       0x7a ../../lib/libc.a(ctypef.o)
 .comment       0x00000000000007e8       0x78 ../../lib/libc.a(atof.o)
 .comment       0x0000000000000860       0x78 ../../lib/libc.a(atol.o)
 .comment       0x00000000000008d8       0x78 ../../lib/libc.a(atoi.o)
 .comment       0x0000000000000950       0x7a ../../lib/libc.a(strtol.o)
 .comment       0x00000000000009ca       0x7a ../../lib/libc.a(strtod.o)
 .comment       0x0000000000000a44       0x7d ../../lib/libc.a(sprintf.o)
 .comment       0x0000000000000ac1       0x7e ../../lib/libc.a(vsprintf.o)
 .comment       0x0000000000000b3f       0x79 ../../lib/libc.a(ctype.o)
 .comment       0x0000000000000bb8       0x79 ../../lib/libc.a(errno.o)
 .comment       0x0000000000000c31       0x2b ../../lib/libc.a(isinf.o)
 .comment       0x0000000000000c5c       0x79 ../../lib/libc.a(ldexp.o)
 .comment       0x0000000000000cd5       0x7d ../../lib/libc.a(_doprnt.o)
 .comment       0x0000000000000d52       0x7e ../../lib/libc.a(_iobdata.o)
 .comment       0x0000000000000dd0       0x7f ../../lib/libc.a(_iobfuncs.o)
 .comment       0x0000000000000e4f       0x80 ../../lib/libc.a(_iobstring.o)
 .comment       0x0000000000000ecf       0x7b ../../lib/libc.a(flock.o)
 .comment       0x0000000000000f4a       0x78 ../../lib/libc.a(modf.o)
 .comment       0x0000000000000fc2       0x7c ../../lib/libc.a(_fwalk.o)
 .comment       0x000000000000103e       0xc7 ../../lib/libe.a(_muldf3.o)
 .comment       0x0000000000001105       0xc7 ../../lib/libe.a(_adddf3.o)
 .comment       0x00000000000011cc       0xc8 ../../lib/libe.a(_fixdfsi.o)
 .comment       0x0000000000001294       0xc8 ../../lib/libe.a(_floatsidf.o)
 .comment       0x000000000000135c       0x2b ../../sdk/Bitel_Bitel.a(BITEL_TL.o)
 .comment       0x0000000000001387       0x2b ../../sdk/Bitel_Bitel.a(CryptoLib.o)
 .comment       0x00000000000013b2       0x2b ../../sdk/Bitel_Bitel.a(EMV_APP.o)
 .comment       0x00000000000013dd       0x2b ../../sdk/Bitel_Bitel.a(EMV_CAT.o)
 .comment       0x0000000000001408       0x2b ../../sdk/Bitel_Bitel.a(ISO8583.o)
 .comment       0x0000000000001433       0x2b ../../sdk/Bitel_Bitel.a(KEYLIB.o)
 .comment       0x000000000000145e       0x2b ../../sdk/Bitel_Bitel.a(KEYPAD.o)
 .comment       0x0000000000001489       0x2b ../../sdk/Bitel_Bitel.a(LCDLIB.o)
 .comment       0x00000000000014b4       0x2b ../../sdk/Bitel_Bitel.a(RTCLIB.o)
 .comment       0x00000000000014df       0x2b ../../sdk/Bitel_Bitel.a(RTCLIB2.o)
 .comment       0x000000000000150a       0x2b ../../sdk/Bitel_Bitel.a(TIMERLIB.o)
 .comment       0x0000000000001535       0x2b ../../sdk/Bitel_Bitel.a(UTILLIB.o)
 .comment       0x0000000000001560       0x79 ../../sdk/Bitel_Bitel.a(_ledf2.o)
 .comment       0x00000000000015d9       0xc9 ../../sdk/Bitel_Bitel.a(_orderdf2.o)
 .comment       0x00000000000016a2       0x2b ../../sdk/Bitel_Bitel.a(asmutil.o)
 .comment       0x00000000000016cd       0x2b ../../sdk/Bitel_Bitel.a(emv_APDU.o)
 .comment       0x00000000000016f8       0x2b ../../sdk/Bitel_Bitel.a(emv_init.o)
 .comment       0x0000000000001723       0x2b ../../sdk/Bitel_Bitel.a(emv_power_up.o)
 .comment       0x000000000000174e       0x2b ../../sdk/Bitel_Bitel.a(emv_set_slot_info.o)
 .comment       0x0000000000001779       0x2b ../../sdk/Bitel_Bitel.a(emv_t1.o)
 .comment       0x00000000000017a4       0x2b ../../sdk/Bitel_Bitel.a(emv_timer.o)
 .comment       0x00000000000017cf       0x2b ../../sdk/Bitel_Bitel.a(emv_transmit.o)
 .comment       0x00000000000017fa       0x2b ../../sdk/Bitel_Bitel.a(gem_TL.o)
 .comment       0x0000000000001825       0x2b ../../sdk/Bitel_Bitel.a(hal_apm.o)
 .comment       0x0000000000001850       0x2b ../../sdk/Bitel_Bitel.a(hal_flash.o)
 .comment       0x000000000000187b       0x2b ../../sdk/Bitel_Bitel.a(hal_intr.o)
 .comment       0x00000000000018a6       0x2b ../../sdk/Bitel_Bitel.a(hal_libc.o)
 .comment       0x00000000000018d1       0x2b ../../sdk/Bitel_Bitel.a(hal_scs_attach.o)
 .comment       0x00000000000018fc       0x2b ../../sdk/Bitel_Bitel.a(hal_scs_cancel.o)
 .comment       0x0000000000001927       0x2b ../../sdk/Bitel_Bitel.a(hal_scs_dev.o)
 .comment       0x0000000000001952       0x2b ../../sdk/Bitel_Bitel.a(hal_scs_get_last_error.o)
 .comment       0x000000000000197d       0x2b ../../sdk/Bitel_Bitel.a(hal_scs_get_slot_info.o)
 .comment       0x00000000000019a8       0x2b ../../sdk/Bitel_Bitel.a(hal_scs_get_status.o)
 .comment       0x00000000000019d3       0x2b ../../sdk/Bitel_Bitel.a(hal_scs_init.o)
 .comment       0x00000000000019fe       0x2b ../../sdk/Bitel_Bitel.a(hal_scs_ioctl.o)
 .comment       0x0000000000001a29       0x2b ../../sdk/Bitel_Bitel.a(hal_scs_isr.o)
 .comment       0x0000000000001a54       0x2b ../../sdk/Bitel_Bitel.a(hal_scs_power_down.o)
 .comment       0x0000000000001a7f       0x2b ../../sdk/Bitel_Bitel.a(hal_scs_power_up.o)
 .comment       0x0000000000001aaa       0x2b ../../sdk/Bitel_Bitel.a(hal_scs_pps_exchange.o)
 .comment       0x0000000000001ad5       0x2b ../../sdk/Bitel_Bitel.a(hal_scs_set_config.o)
 .comment       0x0000000000001b00       0x2b ../../sdk/Bitel_Bitel.a(hal_scs_set_slot_info.o)
 .comment       0x0000000000001b2b       0x2b ../../sdk/Bitel_Bitel.a(hal_scs_t1_block.o)
 .comment       0x0000000000001b56       0x2b ../../sdk/Bitel_Bitel.a(hal_scs_vsr_power_up.o)
 .comment       0x0000000000001b81       0x2b ../../sdk/Bitel_Bitel.a(hal_scs_vsr_pps_exchange.o)
 .comment       0x0000000000001bac       0x2b ../../sdk/Bitel_Bitel.a(hal_scs_vsr_t1_block.o)
 .comment       0x0000000000001bd7       0x2b ../../sdk/Bitel_Bitel.a(hal_sys_alloc.o)
 .comment       0x0000000000001c02       0x2b ../../sdk/Bitel_Bitel.a(hal_timer.o)
 .comment       0x0000000000001c2d       0x2b ../../sdk/Bitel_Bitel.a(libc.o)
 .comment       0x0000000000001c58       0x2b ../../sdk/Bitel_Bitel.a(ppdrv.o)
 .comment       0x0000000000001c83       0x2b ../../sdk/Bitel_Bitel.a(prtutil.o)
 .comment       0x0000000000001cae       0x2b ../../sdk/Bitel_Bitel.a(r_enhanc.o)
 .comment       0x0000000000001cd9       0x2b ../../sdk/Bitel_Bitel.a(r_keygen.o)
 .comment       0x0000000000001d04       0x2b ../../sdk/Bitel_Bitel.a(r_random.o)
 .comment       0x0000000000001d2f       0x78 ../../sdk/Bitel_Bitel.a(rand.o)
 .comment       0x0000000000001da7       0x2b ../../sdk/Bitel_Bitel.a(rsa.o)
 .comment       0x0000000000001dd2       0x2b ../../sdk/Bitel_Bitel.a(sc_at83c26.o)
 .comment       0x0000000000001dfd       0x2b ../../sdk/Bitel_Bitel.a(shsc.o)
 .comment       0x0000000000001e28       0x2b ../../sdk/Bitel_Bitel.a(DES_ECB.o)
 .comment       0x0000000000001e53       0x2b ../../sdk/Bitel_Bitel.a(FRMWRI.o)
 .comment       0x0000000000001e7e       0x2b ../../sdk/Bitel_Bitel.a(NN.o)
 .comment       0x0000000000001ea9       0xc7 ../../sdk/Bitel_Bitel.a(_divdf3.o)
 .comment       0x0000000000001f70       0x79 ../../sdk/Bitel_Bitel.a(_gedf2.o)
 .comment       0x0000000000001fe9       0x79 ../../sdk/Bitel_Bitel.a(_ltdf2.o)
 .comment       0x0000000000002062       0x79 ../../sdk/Bitel_Bitel.a(_nedf2.o)
 .comment       0x00000000000020db       0x2b ../../sdk/Bitel_Bitel.a(at83c26_api.o)
 .comment       0x0000000000002106       0x2b ../../sdk/Bitel_Bitel.a(at83c26_lib.o)
 .comment       0x0000000000002131       0x2b ../../sdk/Bitel_Bitel.a(desc.o)
 .comment       0x000000000000215c       0x2b ../../sdk/Bitel_Bitel.a(emv_atr.o)
 .comment       0x0000000000002187       0x2b ../../sdk/Bitel_Bitel.a(emv_t0.o)
 .comment       0x00000000000021b2       0x7b ../../sdk/Bitel_Bitel.a(fputc.o)
 .comment       0x000000000000222d       0x2b ../../sdk/Bitel_Bitel.a(hal_i2c.o)
 .comment       0x0000000000002258       0x2b ../../sdk/Bitel_Bitel.a(hal_scs_analog.o)
 .comment       0x0000000000002283       0x2b ../../sdk/Bitel_Bitel.a(hal_scs_clock.o)
 .comment       0x00000000000022ae       0x2b ../../sdk/Bitel_Bitel.a(hal_scs_counter.o)
 .comment       0x00000000000022d9       0x2b ../../sdk/Bitel_Bitel.a(hal_scs_handler.o)
 .comment       0x0000000000002304       0x2b ../../sdk/Bitel_Bitel.a(hal_scs_t0_in.o)
 .comment       0x000000000000232f       0x2b ../../sdk/Bitel_Bitel.a(hal_scs_t0_out.o)
 .comment       0x000000000000235a       0x2b ../../sdk/Bitel_Bitel.a(hal_scs_vsr_t0_in.o)
 .comment       0x0000000000002385       0x2b ../../sdk/Bitel_Bitel.a(hal_scs_vsr_t0_out.o)
 .comment       0x00000000000023b0       0x2b ../../sdk/Bitel_Bitel.a(lebRS232.o)
 .comment       0x00000000000023db       0x2b ../../sdk/Bitel_Bitel.a(libEncryption.o)
 .comment       0x0000000000002406       0x2b ../../sdk/Bitel_Bitel.a(libPorts.o)
 .comment       0x0000000000002431       0x2b ../../sdk/Bitel_Bitel.a(lib_timer.o)
 .comment       0x000000000000245c       0x2b ../../sdk/Bitel_Bitel.a(md2c.o)
 .comment       0x0000000000002487       0x2b ../../sdk/Bitel_Bitel.a(md4c.o)
 .comment       0x00000000000024b2       0x2b ../../sdk/Bitel_Bitel.a(prime.o)
 .comment       0x00000000000024dd       0x2b ../../sdk/Bitel_Bitel.a(prtfont.o)
 .comment       0x0000000000002508       0x2b ../../sdk/Bitel_Bitel.a(r_encode.o)
 .comment       0x0000000000002533       0xc7 ../../sdk/Bitel_Bitel.a(_addsf3.o)
 .comment       0x00000000000025fa       0xc7 ../../sdk/Bitel_Bitel.a(_extendsfdf2.o)
 .comment       0x00000000000026c1       0xc8 ../../sdk/Bitel_Bitel.a(_fixsfsi.o)
 .comment       0x0000000000002789       0xc8 ../../sdk/Bitel_Bitel.a(_floatsisf.o)
 .comment       0x0000000000002851       0xc7 ../../sdk/Bitel_Bitel.a(_truncdfsf2.o)

.stab           0x0000000000000000    0x22554
 .stab          0x0000000000000000     0x1080 ./../../Object/cstartup.o
 .stab          0x0000000000001080    0x20b80 ../../sdk/Bitel_Bitel.a(btutils.o)
                                      0x20b8c (size before relaxing)
 .stab          0x0000000000021c00      0x834 ../../sdk/Bitel_Bitel.a(hal_apm_clock.o)
                                        0x840 (size before relaxing)
 .stab          0x0000000000022434      0x120 ../../sdk/Bitel_Bitel.a(hal_intr_mask.o)
                                        0x12c (size before relaxing)

.stabstr        0x0000000000000000      0x986
 .stabstr       0x0000000000000000      0x986 ./../../Object/cstartup.o
