Archive member included because of file (symbol)

./lib/atoflib.a(_ATOF.o)      ././printer.o (atof)
./lib/atoflib.a(__AFCNV.o)    ./lib/atoflib.a(_ATOF.o) (_afcnv)
./lib/libe.a(_divdf3.o)       ././btlib/lib/frmwri.o (__divdf3)
./lib/libe.a(_muldf3.o)       ././key.o (__muldf3)
./lib/libe.a(_adddf3.o)       ././scard.o (__adddf3)
./lib/libe.a(_fixdfsi.o)      ././key.o (__fixdfsi)
./lib/libe.a(_floatsidf.o)    ././scard.o (__floatsidf)
./lib/libe.a(_nedf2.o)        ././btlib/lib/frmwri.o (__nedf2)
./lib/libe.a(_gedf2.o)        ././btlib/lib/frmwri.o (__gedf2)
./lib/libe.a(_ltdf2.o)        ././btlib/lib/frmwri.o (__ltdf2)
./lib/libe.a(_ledf2.o)        ././btlib/lib/frmwri.o (__ledf2)
./lib/libe.a(_orderdf2.o)     ./lib/libe.a(_nedf2.o) (__orderdf2)
./lib/emvlib.a(sc_at83c26.o)  ././btlib/bt_driver/asmutil.o (at83c26_io)
./lib/emvlib.a(emv_init.o)    ././btlib/bt_driver/asmutil.o (emv_init)
./lib/emvlib.a(emv_timer.o)   ./lib/emvlib.a(emv_init.o) (emv_timer_init)
./lib/emvlib.a(hal_scs_cancel.o)
                              ./lib/emvlib.a(emv_timer.o) (hal_scs_cancel)
./lib/emvlib.a(hal_scs_dev.o)
                              ./lib/emvlib.a(hal_scs_cancel.o) (hal_scs_dev_cancel_transfer)
./lib/emvlib.a(hal_scs_init.o)
                              ./lib/emvlib.a(emv_init.o) (hal_scs_init)
./lib/emvlib.a(hal_scs_ioctl.o)
                              ./lib/emvlib.a(sc_at83c26.o) (hal_scs_ioctl)
./lib/emvlib.a(hal_scs_isr.o)
                              ./lib/emvlib.a(hal_scs_init.o) (hal_scs_isr0)
./lib/emvlib.a(hal_scs_set_config.o)
                              ./lib/emvlib.a(hal_scs_init.o) (hal_scs_set_config)
./lib/emvlib.a(hal_apm.o)     ./lib/emvlib.a(sc_at83c26.o) (hal_apm_get_clock_frequency)
./lib/emvlib.a(hal_flash.o)   ./lib/emvlib.a(hal_apm.o) (hal_flash_init)
./lib/emvlib.a(hal_i2c.o)     ./lib/emvlib.a(sc_at83c26.o) (hal_i2c_init)
./lib/emvlib.a(hal_intr.o)    ./lib/emvlib.a(hal_scs_init.o) (hal_interrupt_attach)
./lib/emvlib.a(hal_libc.o)    ./lib/emvlib.a(hal_flash.o) (hal_memcmp)
./lib/emvlib.a(hal_sys_alloc.o)
                              ./lib/emvlib.a(emv_init.o) (hal_sys_pool_init)
./lib/emvlib.a(hal_timer.o)   ./lib/emvlib.a(emv_timer.o) (hal_timer_init)
./lib/emvlib.a(hal_apm_clock.o)
                              ./lib/emvlib.a(hal_apm.o) (hal_apm_change_clock_frequency)
./lib/emvlib.a(hal_intr_mask.o)
                              ./lib/emvlib.a(hal_scs_dev.o) (hal_interrupt_mask)
./lib/emvlib.a(at83c26_api.o)
                              ./lib/emvlib.a(sc_at83c26.o) (c26_general_init)
./lib/emvlib.a(at83c26_lib.o)
                              ./lib/emvlib.a(sc_at83c26.o) (c26_read_command)
./lib/emvlib.a(hal_scs_analog.o)
                              ./lib/emvlib.a(hal_scs_dev.o) (hal_scs_analog_card_presence)
./lib/emvlib.a(hal_scs_clock.o)
                              ./lib/emvlib.a(hal_scs_set_config.o) (hal_scs_set_clock)
./lib/emvlib.a(hal_scs_counter.o)
                              ./lib/emvlib.a(hal_scs_dev.o) (hal_scs_counter_halt)
./lib/emvl2.a(DES_ECB.o)      ././btlib/bt_driver/ppdrv.o (des)
./lib/emvl2.a(EMV_APP.o)      ././scard.o (gbIccAIDno)
./lib/emvl2.a(EMV_CAT.o)      ./lib/emvl2.a(EMV_APP.o) (TrmARC_Y1)
./lib/emvl2.a(emv_APDU.o)     ././scard.o (gem_Protocol)
./lib/emvl2.a(gem_TL.o)       ././scard.o (TL_SendReceive)
./lib/emvl2.a(r_enhanc.o)     ././btlib/bt_driver/cryptolib.o (R_DigestInit)
./lib/emvl2.a(r_keygen.o)     ././btlib/bt_driver/cryptolib.o (R_GeneratePEMKeys)
./lib/emvl2.a(r_random.o)     ././btlib/bt_driver/cryptolib.o (R_RandomInit)
./lib/emvl2.a(rsa.o)          ./lib/emvl2.a(r_enhanc.o) (RSAPublicEncrypt)
./lib/emvl2.a(shsc.o)         ./lib/emvl2.a(r_enhanc.o) (SHSInit)
./lib/emvl2.a(NN.o)           ./lib/emvl2.a(rsa.o) (NN_Decode)
./lib/emvl2.a(desc.o)         ./lib/emvl2.a(r_enhanc.o) (DES_CBCInit)
./lib/emvl2.a(md2c.o)         ./lib/emvl2.a(r_enhanc.o) (MD2Init)
./lib/emvl2.a(md4c.o)         ./lib/emvl2.a(r_enhanc.o) (MD4Init)
./lib/emvl2.a(md5c.o)         ./lib/emvl2.a(r_enhanc.o) (MD5Init)
./lib/emvl2.a(prime.o)        ./lib/emvl2.a(r_keygen.o) (GeneratePrime)
./lib/emvl2.a(r_encode.o)     ./lib/emvl2.a(r_enhanc.o) (R_EncodePEMBlock)
./lib/emvlib.a(emv_power_up.o)
                              ./lib/emvl2.a(gem_TL.o) (emv_power_up)
./lib/emvlib.a(emv_set_slot_info.o)
                              ./lib/emvlib.a(emv_power_up.o) (emv_set_slot_info)
./lib/emvlib.a(emv_t1.o)      ./lib/emvlib.a(emv_power_up.o) (emv_t1_block)
./lib/emvlib.a(emv_transmit.o)
                              ./lib/emvl2.a(gem_TL.o) (emv_transmit)
./lib/emvlib.a(hal_scs_attach.o)
                              ./lib/emvlib.a(emv_power_up.o) (hal_scs_attach)
./lib/emvlib.a(hal_scs_get_last_error.o)
                              ./lib/emvlib.a(emv_power_up.o) (hal_scs_get_last_error)
./lib/emvlib.a(hal_scs_get_slot_info.o)
                              ./lib/emvlib.a(emv_power_up.o) (hal_scs_get_slot_info)
./lib/emvlib.a(hal_scs_get_status.o)
                              ./lib/emvl2.a(gem_TL.o) (hal_scs_get_status)
./lib/emvlib.a(hal_scs_power_down.o)
                              ./lib/emvl2.a(gem_TL.o) (hal_scs_power_down)
./lib/emvlib.a(hal_scs_power_up.o)
                              ./lib/emvlib.a(emv_power_up.o) (hal_scs_power_up)
./lib/emvlib.a(hal_scs_pps_exchange.o)
                              ./lib/emvlib.a(emv_power_up.o) (hal_scs_pps_exchange)
./lib/emvlib.a(hal_scs_set_slot_info.o)
                              ./lib/emvlib.a(emv_power_up.o) (hal_scs_set_slot_info)
./lib/emvlib.a(hal_scs_t1_block.o)
                              ./lib/emvlib.a(emv_t1.o) (hal_scs_t1_block)
./lib/emvlib.a(hal_scs_vsr_power_up.o)
                              ./lib/emvlib.a(hal_scs_power_up.o) (hal_scs_vsr_power_up)
./lib/emvlib.a(hal_scs_vsr_pps_exchange.o)
                              ./lib/emvlib.a(hal_scs_pps_exchange.o) (hal_scs_vsr_pps_exchange)
./lib/emvlib.a(hal_scs_vsr_t1_block.o)
                              ./lib/emvlib.a(hal_scs_t1_block.o) (hal_scs_vsr_t1_block)
./lib/emvlib.a(emv_atr.o)     ./lib/emvlib.a(emv_power_up.o) (emv_atr_parse)
./lib/emvlib.a(emv_power_down.o)
                              ./lib/emvlib.a(emv_power_up.o) (emv_power_down)
./lib/emvlib.a(emv_t0.o)      ./lib/emvlib.a(emv_transmit.o) (emv_t0_transmit)
./lib/emvlib.a(hal_scs_handler.o)
                              ./lib/emvlib.a(hal_scs_vsr_power_up.o) (hal_scs_handler_parity)
./lib/emvlib.a(hal_scs_t0_in.o)
                              ./lib/emvlib.a(emv_t0.o) (hal_scs_t0_in)
./lib/emvlib.a(hal_scs_t0_out.o)
                              ./lib/emvlib.a(emv_t0.o) (hal_scs_t0_out)
./lib/emvlib.a(hal_scs_vsr_t0_in.o)
                              ./lib/emvlib.a(hal_scs_t0_in.o) (hal_scs_vsr_t0_in)
./lib/emvlib.a(hal_scs_vsr_t0_out.o)
                              ./lib/emvlib.a(hal_scs_t0_out.o) (hal_scs_vsr_t0_out)

Allocating common symbols
Common symbol       size              file

sz17EncypritedCardPIN
                    0x11              ././apppos.o
PEDT_IPOINT         0x4               ././btlib/bt_driver/ppdrv.o
D                   0x4               ./lib/emvl2.a(shsc.o)
usTrxnLogIndex      0x2               ././apppos.o
usMagtekMSRPreamble
                    0x2               ././btlib/lib/magtek_msr.o
tPOSUtilBuf         0x2000            ././flash.o
c65TempKeyBuf       0x41              ././key.o
st_TrxnReqData      0xc08             ././apppos.o
usPrintingFinish10MSTimer
                    0x2               ././printer.o
sz5ExpiryDate       0x5               ././msr.o
usColonOn1MSTimer   0x2               ././rtc.o
pstHotCard          0x4               ././flash.o
F048aL3_sz1003BillPaymentData1
                    0x3eb             ././apppos.o
ucTxBuf             0x2000            ././modem.o
isDetectCard        0x4               ././msr.o
PRIVATE_KEY2        0x584             ././btlib/bt_driver/cryptolib.o
ucMagtekMSRTrackForwardFlag
                    0x1               ././btlib/lib/magtek_msr.o
sz29OrganizationAccount
                    0x1d              ././apppos.o
iModemTestTotalCnt  0x4               ././hwtest.o
ucRxBuf             0x2000            ././modem.o
ucGprsGsmModel      0x1               ././gsm.o
ucGprsCheckDisconnectCnt
                    0x1               ././gsm.o
ucBufferRx          0xc               ./lib/emvlib.a(at83c26_lib.o)
PEDT_BUFFER         0x100             ././btlib/bt_driver/ppdrv.o
ucModemTestFlag     0x1               ././hwtest.o
c65TempBuf          0x41              ././key.o
iRS232RxCnt         0x4               ././rs232.o
sz20PAN             0x14              ././msr.o
ucTempSec           0x1               ././rtc.o
stEmvApp            0xf2              ././flash.o
TxDBUF              0x800             ././scard.o
iFlashTrxnLogSectorNo
                    0x4               ././flash.o
tPOSUtilInfo        0x18              ././flash.o
ucGprsCmdRetryCnt   0x1               ././gsm.o
ucGprsModuleOkFlag  0x1               ././gsm.o
pstBinTable         0x4               ././flash.o
stEmvRevokeCapk     0x9               ././flash.o
TrmTCC              0x1               ././scard.o
pstAppList          0x4               ././flash.o
ucGprsPowerOffFlag  0x1               ././gsm.o
sz38Track2Data      0x26              ././msr.o
PEDR_MPOINT         0x4               ././btlib/bt_driver/ppdrv.o
ucCheckColonTimerFlag
                    0x1               ././rtc.o
PEDR_IPOINT         0x4               ././btlib/bt_driver/ppdrv.o
ucGprsBerValue      0x1               ././gsm.o
ucReqDataReadyFlag  0x1               ././modem.o
usMsgType           0x2               ././apppos.o
pgbPOSEntryMode     0x4               ./lib/emvl2.a(EMV_APP.o)
A                   0x4               ./lib/emvl2.a(shsc.o)
tBuf1               0x80              ././btlib/bt_driver/cryptolib.o
gbScBuf             0x106             ./lib/emvl2.a(emv_APDU.o)
sz9BackupMerchantID
                    0x10              ././apppos.o
ucGprsRssiRetryCnt  0x1               ././gsm.o
gsTrmTAC            0xf               ./lib/emvl2.a(EMV_APP.o)
CardNo2             0x34              ././scard.o
GemSlotOpen         0x4               ./lib/emvl2.a(gem_TL.o)
ucBlackListExistFlag
                    0x1               ././apppos.o
lTMSAutoDownloadTried1SECTimer
                    0x4               ././tmsdown.o
ucAutoTMSDownloadFirstFlag
                    0x1               ././tmsdown.o
giTransactionType   0x4               ././gsm.o
ucBuyTrxnType       0x1               ././apppos.o
sTMSDownloadSectorNo
                    0x2               ././tmsdown.o
iMaxDBCtrlIndex     0x4               ././apppos.o
usMainStatus        0x2               ././key.o
giScLen             0x4               ./lib/emvl2.a(emv_APDU.o)
lMaxLogAddr         0x4               ././apppos.o
EXTFONTBUF          0x80              ././sfontlib.o
pgsTrmTVR           0x4               ./lib/emvl2.a(EMV_APP.o)
sz18GsmOperator     0x12              ././gsm.o
TrmAcquirerID       0x6               ././scard.o
PUBLIC_KEY2         0x204             ././btlib/bt_driver/cryptolib.o
emvref              0x3c              ./lib/emvl2.a(EMV_APP.o)
stSessionKey        0x200             ././flash.o
usRS232TaskStep     0x2               ././rs232.o
ucAutoTMSDownloadDateFlag
                    0x1               ././tmsdown.o
cMaxInputCnt        0x1               ././key.o
hal_timer_initialized
                    0x10              ./lib/emvlib.a(hal_timer.o)
gbDDFstackHead      0x1               ./lib/emvl2.a(EMV_APP.o)
pusServiceAddr      0x4               ././key.o
c65CommaAndDotString
                    0x41              ././key.o
ucMagtekMSRTrack3ErrorFlag
                    0x1               ././btlib/lib/magtek_msr.o
uiMagtekMSRBufferReadyCount
                    0x4               ././btlib/lib/magtek_msr.o
usBackupMsgType     0x2               ././apppos.o
usEodTrxnCount      0x2               ././apppos.o
ucDateTimeRefreshFlag
                    0x1               ././rtc.o
ucDisconnectCnt     0x1               ././modem.o
cXPos               0x1               ././key.o
ucPrintError        0x1               ././printer.o
c9ActiveTrxnMenuType
                    0x9               ././apppos.o
usBackupTransType   0x2               ././apppos.o
sz9POSSetupInfoDate
                    0x9               ././main.o
usReversalPrint10MSTimer
                    0x2               ././key.o
dBuyAmount          0x8               ././apppos.o
ucGprsSIMStatus     0x1               ././gsm.o
CardNo1             0x70              ././scard.o
pstfSavingTrxnLog   0x4               ././apppos.o
TrmType             0x1               ././scard.o
tCipherText         0x80              ././btlib/bt_driver/cryptolib.o
TrmCapaAdditional   0x5               ././scard.o
gbExtPinPadFound    0x1               ././scard.o
TrmCapa             0x3               ././scard.o
pgsTrmCVMR          0x4               ./lib/emvl2.a(EMV_APP.o)
gSysTimer           0x2               ././scard.o
TagStack            0x200             ././htmlutil.o
ucReqDataTxFlag     0x1               ././modem.o
AESkeyIntialized    0x4               ././btlib/bt_driver/cryptolib.o
ucTrxnTxBuf         0x2000            ././modem.o
sz77Track1Data      0x4d              ././msr.o
usRS23210MSMaxTimeout
                    0x2               ././rs232.o
sz9BackupTerminalID
                    0x9               ././apppos.o
lTMSDownlaodDataPacketMaxBytes
                    0x4               ././tmsdown.o
usLCDBackLightOn10MSTimer
                    0x2               ././rtc.o
B                   0x4               ./lib/emvl2.a(shsc.o)
lMinLogAddr         0x4               ././apppos.o
ucAutoTMSDownloadTimeFlag
                    0x1               ././tmsdown.o
pstfLastTrxnLog     0x4               ././apppos.o
ucGprsDLESetFlag    0x1               ././gsm.o
ucGprsRegistrationStatus
                    0x1               ././gsm.o
ucBGTCounterReception
                    0x1               ./lib/emvlib.a(hal_scs_vsr_t1_block.o)
RealTime            0x8               ././rtc.o
iRxSize             0x4               ././modem.o
CardAcceptorMerchantID
                    0xf               ././scard.o
SvrPlainText        0x100             ././btlib/bt_driver/cryptolib.o
sz13CardPIN         0xd               ././apppos.o
allready_powered_down
                    0x4               ./lib/emvlib.a(sc_at83c26.o)
ucTrxnRxBuf         0x2000            ././modem.o
tagName             0x40              ././htmlutil.o
usPrintAutoSecondReceipt10MSTimer
                    0x2               ././printer.o
sTMSDownlaodDataPacketSize
                    0x2               ././tmsdown.o
sz4CardServiceCode  0x4               ././msr.o
C                   0x4               ./lib/emvl2.a(shsc.o)
tBuf2               0x80              ././btlib/bt_driver/cryptolib.o
gsXRec              0x100             ././scard.o
GemSlotNo           0x4               ./lib/emvl2.a(gem_TL.o)
Total_Amount        0x10              ././scard.o
PEDR_COUNT          0x4               ././btlib/bt_driver/ppdrv.o
pgsTrmCAPA          0x4               ./lib/emvl2.a(EMV_APP.o)
gsICCardPK          0x204             ./lib/emvl2.a(EMV_CAT.o)
at83c26_selected_device
                    0x4               ./lib/emvlib.a(sc_at83c26.o)
emv_handles         0x18              ./lib/emvlib.a(emv_init.o)
hal_timer_vsr       0x10              ./lib/emvlib.a(hal_timer.o)
ucReversalFlag      0x1               ././apppos.o
_AHN_KeyLoad        0x4               ././btlib/bt_driver/cryptolib.o
gbDDFstackTail      0x1               ./lib/emvl2.a(EMV_APP.o)
gsIsuIAC            0xf               ./lib/emvl2.a(EMV_APP.o)
hal_scs_dev         0x2b8             ./lib/emvlib.a(hal_scs_dev.o)
GPRS_bearer_Retry   0x4               ././gsm.o
hal_sys_pool_head   0x4               ./lib/emvlib.a(hal_sys_alloc.o)
ucTMSDownloadRetryCnt
                    0x1               ././tmsdown.o
tDataBuf            0x800             ././btlib/bt_driver/cryptolib.o
pgsTrmTSI           0x4               ./lib/emvl2.a(EMV_APP.o)
ucGprsBearerOpenedFlag
                    0x1               ././gsm.o
LcdDispBuf          0x400             ././sfontlib.o
SelectedAID         0x11              ././scard.o
iRxCnt              0x4               ././modem.o
first_dcdcb_start   0x4               ./lib/emvlib.a(sc_at83c26.o)
RxDBUF              0x800             ././scard.o
usAutoReversal10MSTimer
                    0x2               ././key.o
ucMagtekMSRNewMode3TrackImageData
                    0x108             ././btlib/lib/magtek_msr.o
TrmRxDataBuf        0x100             ././btlib/bt_driver/cryptolib.o
ucRS232RxBuf        0x2000            ././rs232.o
sVirtualKey         0x2               ././key.o
sz19BillID          0x13              ././apppos.o
usWipCmdRetryCnt    0x2               ././gsm.o
POSSerialNr         0x8               ././scard.o
giTLVBufTotalLen    0x4               ././htmlutil.o
stEmvCapk           0x152             ././flash.o
iStartDBCtrlIndex   0x4               ././apppos.o
lFlashSectorSize    0x4               ././flash.o
pusReqSequence      0x4               ././gsm.o
ucMagtekMSRTrackRawDataLen
                    0x1               ././btlib/lib/magtek_msr.o
ucGprsRegistrationRetryCnt
                    0x1               ././gsm.o
sTempKey            0x2               ././key.o
sz17ProgramDate     0x11              ././main.o
usGprs10MSMaxTimeout
                    0x2               ././gsm.o
ucSIMChargeOperatorCode
                    0x1               ././apppos.o
st_ErrRespData      0x3c              ././apppos.o
sz13Amount          0xd               ././apppos.o
st_TrxnRespData     0xc1c             ././apppos.o
usTransType         0x2               ././apppos.o
TraceNr             0x2               ././scard.o
tTMSDownloadInfo    0x100             ././tmsdown.o
sz27CardholderName  0x1b              ././msr.o
stBinTable          0x1000            ././flash.o
sz17HWInfo          0x11              ././main.o
st_EndOfDay         0x20              ././key.o
pgsSC_STAT          0x4               ./lib/emvl2.a(emv_APDU.o)
str_p               0x4               ./lib/atoflib.a(__AFCNV.o)
tmpEcbBlock         0x40              ./lib/emvl2.a(DES_ECB.o)
usRS23210MSTimer    0x2               ././rs232.o
sz5LCDDisplayProgramVersion
                    0x5               ././main.o
iTxSize             0x4               ././modem.o
st_ReversalTrxnReqData
                    0xc08             ././apppos.o
SvcCode             0x3               ././scard.o
gbATRdata           0x28              ./lib/emvl2.a(emv_APDU.o)
hal_timer_vsr_count
                    0x4               ./lib/emvlib.a(hal_timer.o)
sTMSDownlaodClusterNoPerSector
                    0x2               ././tmsdown.o
ucHtmlHeader        0x800             ././gsm.o
dDebitBuyAmount     0x8               ././apppos.o
at83c26_counter     0x4               ./lib/emvlib.a(at83c26_lib.o)
stParams            0x800             ././flash.o
stAppList           0x3c00            ././flash.o
pgsTrmISR           0x4               ./lib/emvl2.a(EMV_APP.o)
ulBackupPCode       0x4               ././apppos.o
pgbTrmRevocList     0x4               ./lib/emvl2.a(EMV_CAT.o)
sz17TMSSWVersion    0x11              ././main.o
TrmMCC              0x2               ././scard.o
ucTxTempBuf         0x2000            ././modem.o
stMasterKey         0x200             ././flash.o
gsEmvCA_PK          0x204             ./lib/emvl2.a(EMV_CAT.o)
stHotCard           0xa000            ././flash.o
PEDR_BUFFER         0x100             ././btlib/bt_driver/ppdrv.o
CardHolderName      0x11              ././scard.o
sz105Track3Data     0x69              ././msr.o
gsSC_STAT           0x7               ./lib/emvl2.a(emv_APDU.o)
gsTrmRsaKey         0x4b0             ./lib/emvl2.a(EMV_CAT.o)
dCreditBuyAmout     0x8               ././apppos.o
st_POSSetupInfo     0x2000            ././flash.o
giRequestType       0x4               ././gsm.o
sz17TrxnTitle       0x11              ././key.o
sz6BIOSVersion      0x6               ././main.o
ucGprsMaxConnectCnt
                    0x1               ././gsm.o
gbLangCode          0x4               ././scard.o
ucGprsRssiValue     0x1               ././gsm.o
usPrint10MSTimer    0x2               ././printer.o
iModelName          0x4               ././main.o
lGprsTest1SecCheckTimer
                    0x4               ././gsm.o
lCallHome1SECTimer  0x4               ././key.o
st_TrxnLogDB        0x1f40            ././apppos.o
ucMagtekMSRTrack1ErrorFlag
                    0x1               ././btlib/lib/magtek_msr.o
ucLangFlag          0x1               ././main.o
cMagtekMSRTrackRawData
                    0x6b              ././btlib/lib/magtek_msr.o
ucLCDBacklightOnFlag
                    0x1               ././rtc.o
ucPRTDensity        0x1               ././printer.o
TrmForceOnLine      0x1               ././scard.o
pgbTrmExcepList     0x4               ./lib/emvl2.a(EMV_CAT.o)
usTMSDownload10MSTimer
                    0x2               ././tmsdown.o
gem_RS232open       0x1               ./lib/emvl2.a(emv_APDU.o)
ucTMSDownloadFlag   0x1               ././tmsdown.o
sz17ProgramVersion  0x11              ././main.o
ucMSRTrack          0x1               ././msr.o
gbDestBuf           0x800             ./lib/emvl2.a(emv_APDU.o)
gbTempBuf           0x800             ./lib/emvl2.a(emv_APDU.o)
gsSHSconText        0x60              ././btlib/bt_driver/cryptolib.o
ucMagtekMSRTrack2ErrorFlag
                    0x1               ././btlib/lib/magtek_msr.o
GraphicBuf          0x400             ././sfontlib.o
TrmL2TTAmode        0x1               ././scard.o
pgsTrmACAP          0x4               ./lib/emvl2.a(EMV_APP.o)
pstfTempTrxnLog     0x4               ././apppos.o
first_init          0x4               ./lib/emvlib.a(sc_at83c26.o)
E                   0x4               ./lib/emvl2.a(shsc.o)
dRefundAmout        0x8               ././apppos.o
sz12PhoneNo         0xc               ././apppos.o
tPlainText          0x80              ././btlib/bt_driver/cryptolib.o
gbPinBlock          0x8               ././scard.o
TrmCipherText       0x100             ././btlib/bt_driver/cryptolib.o
ucMultiMerchantSelectedNo
                    0x1               ././apppos.o
FlashWriteBuf       0x20000           ././flash.o
atmel_sc_voltage    0x18              ./lib/emvlib.a(sc_at83c26.o)
ucPrintReceiptNo    0x1               ././printer.o
st_TrxnLog          0x3c8             ././apppos.o
sz19PaymentID       0x13              ././apppos.o
PEDT_COUNT          0x4               ././btlib/bt_driver/ppdrv.o
pinWait             0x4               ././btlib/bt_driver/ppdrv.o
ApplicableValues    0x1               ./lib/emvlib.a(emv_power_up.o)
giPinTryCnt         0x4               ././scard.o
gbSMID              0x1               ././btlib/bt_driver/ppdrv.o
ucTempMin           0x1               ././rtc.o
gbSignBuf           0x800             ./lib/emvl2.a(emv_APDU.o)
ucGprsPowerOnStatus
                    0x1               ././gsm.o
ucGprsNetworkConnectionStatus
                    0x1               ././gsm.o
ucCurrencyExp       0x1               ././main.o
usPrintStep         0x2               ././printer.o
ucPINInputAndReconnectFlag
                    0x1               ././apppos.o
ucPrintPrePrintingAreaFlag
                    0x1               ././printer.o
pstFuncList         0x4               ././flash.o
pgsIccAIP           0x4               ./lib/emvl2.a(EMV_APP.o)
sz17ActiveTrxnMenuMsg
                    0x99              ././apppos.o
first_emv_init      0x4               ./lib/emvlib.a(emv_init.o)
cYPos               0x1               ././key.o
usGprsTaskStep      0x2               ././gsm.o
uiOperationPending  0x4               ./lib/emvlib.a(at83c26_lib.o)
pstMasterKey        0x4               ././flash.o
SvrCipherText       0x100             ././btlib/bt_driver/cryptolib.o
ucGprsConnectCnt    0x1               ././gsm.o
ucReversalRetryCnt  0x1               ././apppos.o
iTMSDownInfoBlockIndex
                    0x4               ././tmsdown.o
pstfFirstTrxnLog    0x4               ././apppos.o
lGprsTest1SecStartTimer
                    0x4               ././gsm.o
giTLVBufLen         0x4               ././htmlutil.o
PinData             0x1a4             ././btlib/bt_driver/ppdrv.o
PEDT_MPOINT         0x4               ././btlib/bt_driver/ppdrv.o
ulPCode             0x4               ././apppos.o
CardAcceptorTerminalID
                    0x8               ././scard.o
gbTmpRespBuf        0x2000            ././gsm.o
pgbTLVBuf           0x4               ././htmlutil.o
stpFlashPOSSetupInfo
                    0x4               ././flash.o
usAutoInitial10MSTimer
                    0x2               ././key.o
GemMode             0x1               ./lib/emvl2.a(gem_TL.o)
pstParams           0x4               ././flash.o
ucGprsSIMCheckedFlag
                    0x1               ././gsm.o
giRespContentLength
                    0x4               ././gsm.o
giTrmISR            0x4               ./lib/emvl2.a(EMV_APP.o)
PUBLIC_KEY1         0x204             ././btlib/bt_driver/cryptolib.o
ucReversalRetryTimePerCnt
                    0x1               ././apppos.o
usTrxnTotalCount    0x2               ././apppos.o
sz17TRMModelName    0x11              ././main.o
iRS232RxSize        0x4               ././rs232.o
iModemTestOKCnt     0x4               ././hwtest.o
tagData             0x200             ././htmlutil.o
gsIssuerPK          0x204             ./lib/emvl2.a(EMV_CAT.o)
hal_sys_pool_top    0x4               ./lib/emvlib.a(hal_sys_alloc.o)
F121aL3_sz1003BillPaymentData2
                    0x3eb             ././apppos.o
gbTmpKeyBuf         0x14              ././scard.o
ucRxTempBuf         0x2000            ././modem.o
usResponseCode      0x2               ././apppos.o
iTrmModelNo         0x4               ././btlib/bt_driver/cryptolib.o
GemModeAUX          0x1               ./lib/emvl2.a(gem_TL.o)
ucGsmNetworkRegistrationMode
                    0x1               ././gsm.o
usGprs10MSTimer     0x2               ././gsm.o
stEftParams         0x400             ././flash.o
iFlashMemorySize    0x4               ././flash.o

Memory Configuration

Name             Origin             Length             Attributes
flash            0x0000000040000000 0x0000000000800000 xrw
sram             0x0000000050000000 0x0000000000200000 xrw
*default*        0x0000000000000000 0xffffffffffffffff

Linker script and memory map


.com.vect.r     0x0000000040000000      0x630
 *(.cstartup)
 .cstartup      0x0000000040000000      0x630 ././btlib/bt_driver/cstartup.o
                0x0000000040000590                SEARCH_REFTABLE
                0x0000000040000000                int_vector
                0x0000000040000240                ASMSTART

.usr.text       0x0000000040000630    0xdada4
                0x0000000040000630                _stext = .
                0x0000000040000630                _ftext = .
 *(.lib.prog)
 .lib.prog      0x0000000040000630     0xdfe8 ././btlib/bt_driver/btutils.o
                0x000000004000dac8                GET_1M_TIMER
                0x0000000040001fa0                GRADATALOAD240OFFSET
                0x0000000040007ecc                CARD_DISABLE
                0x000000004000e0e0                LCDCONT_SEXIST
                0x000000004000dbec                CL_RESET
                0x000000004000c194                SENSOR_CAUSE1
                0x000000004000198c                icorpld
                0x0000000040009b08                RTC_CLK_WRITE
                0x0000000040001b5c                MMAKEDLD
                0x000000004000b9d0                READ_POWER_SAVING_STATUS
                0x000000004000c2cc                CHK_VERNUM
                0x000000004000d8ec                TASK_STOP
                0x00000000400011cc                LCDON
                0x000000004000e090                CHECK_CL_INT
                0x000000004000b3f8                NMI_VSR
                0x00000000400019f4                PAGELD
                0x000000004000b6fc                SENSOR_SET_CONFIG
                0x000000004000ab6c                SELECT_APPLICATION
                0x0000000040002214                GRAPOSITION240
                0x00000000400076e4                INIT_CR
                0x00000000400019b8                CORPLD
                0x000000004000b2ac                GET_TRUE_RANDOM_NUMBER
                0x0000000040009dcc                FLASH_RAM_PROGRAM
                0x000000004000e2c0                UART23_POWERON
                0x000000004000b920                SET_TX_TIME_INTERVAL
                0x000000004000c44c                GET_FONTDATA
                0x00000000400018b0                COLUMND
                0x000000004000ae94                FLASH_SECTOR_ERASE
                0x000000004000c124                SENSOR_CAUSE
                0x000000004000dd34                ReadRawRC
                0x000000004000d5f8                POWER_KEY_INHIBIT
                0x000000004000de20                SET_SPI_CONFIG
                0x00000000400081a8                LCD_RESET
                0x000000004000b25c                BACK_OFF
                0x0000000040001274                LCDEXTRA_AREA
                0x00000000400082dc                KEYS_TYPE
                0x000000004000ac04                SAVE_BOOT_APPLICATION
                0x0000000040001cfc                GRADATA_LOAD
                0x00000000400013c0                RS232_SETUP
                0x000000004000a2d4                FLASH_RAM_PROGRAM32
                0x0000000040000ae4                INITLCD
                0x000000004000e160                LED_DISPLAY
                0x000000004000df10                CL_CARD_ENABLE
                0x0000000040001594                PAPER_READ
                0x000000004000da70                SET_TASK_STACK_SIZE
                0x000000004000b620                FOR_PROMPT
                0x000000004000e514                SLE_POWERUP
                0x000000004000e4dc                UART3_RESETOUT
                0x000000004000dc50                WriteRawRC
                0x0000000040001b2c                MAKEDLD
                0x00000000400082b8                ENTER_RESET
                0x000000004000c380                GET_HWDATA
                0x000000004000e064                SET_CONTACTLESS_INTERFACE
                0x0000000040007230                KEYDECODER
                0x000000004000bd14                POWER_ICON_DISPLAY
                0x000000004000a7ec                WRITE_APP_PROGRAM
                0x000000004000db34                SET_MULTITASKING_USAGE
                0x000000004000dadc                SET_TASK_PRIORITY_MODE
                0x0000000040001574                RS232_DATA_READ
                0x0000000040001e28                GRA64LD
                0x00000000400013fc                RS232_ENABLE
                0x0000000040001af4                MAKEDI0
                0x000000004000ca74                VARINIT
                0x0000000040001438                RS232_TX_STATUS
                0x000000004000ba80                CONTROL_POWER_SAVING_STATUS
                0x000000004000c214                SIM_SELECT
                0x000000004000cda4                UART1_POWERDOWN
                0x000000004000cea8                FOMA_ONOFF
                0x000000004000b5a4                DLY10MS
                0x000000004000dfd0                CL_CARD_DISABLE
                0x000000004000cd2c                RS232_POWERON
                0x000000004000800c                MODEM_RESET
                0x000000004000b078                BEEP_TONE
                0x000000004000718c                GET_KEYDATA
                0x0000000040008130                WIFI_POWER_OFF
                0x0000000040008230                SCC_RESET
                0x000000004000d970                SET_TASK_CHANGE_TIME
                0x0000000040001fe4                GRADATALOAD240
                0x000000004000cde4                MEMSIM
                0x000000004000d67c                TASK_START
                0x000000004000d57c                POWER_OFF
                0x000000004000c49c                PRINTER_OFF
                0x0000000040001200                LCDOFF
                0x00000000400080a4                WIFI_POWER_ON
                0x000000004000b1e0                BACK_ON
                0x000000004000afb0                USIP_REG_READ
                0x000000004000c5e4                SYSINIT
                0x000000004000e34c                UART2_RESETOUT
                0x000000004000231c                FNTLD
                0x0000000040001b10                MAKEDI1
                0x000000004000977c                RTC_CLK_READ
                0x000000004000ac8c                FLASH_WRITE
                0x0000000040007d98                CARD_ENABLE
                0x0000000040000870                INIT_SYSTEM
                0x000000004000b29c                BACK_ONOFF
                0x0000000040008334                CARD_READ
                0x0000000040007f68                TRACK_SETUP
                0x000000004000cd68                UART1_POWERON
                0x000000004000d110                ENTER_STANDBY
                0x000000004000b85c                DELAY_US
                0x000000004000b374                ENTER_AFTER_KEYLOAD
                0x0000000040001554                RS232_RX_COUNT_DEC
                0x000000004000b014                USIP_REG_WRITE
                0x000000004000a8bc                FIND_APPLICATION
                0x0000000040000630                utils_function
                0x000000004000172c                LCD_CONT
 .lib.prog      0x000000004000e618     0x7844 ././btlib/bt_driver/asmutil.o
                0x0000000040014378                CheckCrc16
                0x0000000040010250                ICON_CLOCK_DISPLAY
                0x000000004000e6c8                CHECK_RFCTS
                0x0000000040014e24                BT_flash_write
                0x0000000040013690                FIND_APP
                0x000000004001250c                WRCOM0
                0x0000000040012b68                EDITINS
                0x000000004000e6d4                DTR_HIGH
                0x000000004000f4cc                DISPLAY_BCLEAR
                0x000000004001161c                PINPAD_SEL
                0x000000004000e9c8                ONLINE_READ
                0x000000004001085c                ADV_DISPLAY
                0x0000000040011654                SET_SERIAL_COMBO
                0x00000000400140a4                InitCrc16A
                0x000000004000ea50                SET_BUFFER_SIZE_8K
                0x0000000040015648                RAM_Program_Init
                0x0000000040012894                READ_COM1
                0x000000004000e784                RS232BAUD
                0x000000004000edd4                SET_VERSION_NUMBER
                0x000000004000f98c                STR_DISPLAY
                0x000000004000e768                MODEM_PARITY
                0x00000000400102ac                CHECK_LCD_TYPE
                0x0000000040010944                USE_PRTFONT
                0x000000004000ef48                L4_SUB
                0x000000004001031c                GRA_LOAD
                0x0000000040013e2c                CheckProgCrc16
                0x000000004000f300                DSPFHAN
                0x0000000040011634                RFCARD_SEL
                0x00000000400116f0                UARTRXCOUNT
                0x0000000040012bd0                EDIT_CURSOR_INC
                0x000000004000e73c                COM3RXCOUNT
                0x0000000040012c90                EDIT_CURSOR_DEC
                0x0000000040013954                SYNC_MODE
                0x0000000040012098                WRCOM3
                0x0000000040012eec                EDIT_INIT
                0x0000000040012dcc                EDIT_DISPLAY
                0x000000004000ee10                BUZZOFF
                0x0000000040010e44                DISPOS
                0x0000000040011684                SC_RESET
                0x0000000040010dbc                LCDCNOR
                0x0000000040012dc4                GET_SP
                0x000000004000f38c                DSPFENG
                0x0000000040010ce0                BINVERT
                0x0000000040015b34                GET_X_Y_Z
                0x000000004000e6e4                COM1RXCOUNT
                0x000000004000f5c4                LCD_CLEAR
                0x0000000040011f8c                GEMRXCOUNT
                0x000000004000ead4                KEYSCAN
                0x000000004001030c                GRAMOVE_OFF
                0x000000004000ea04                MAKEONLINE
                0x000000004000e798                READ_RS232_STATUS
                0x000000004000e874                COM1_POINT_INIT
                0x000000004001475c                flash_memcmp
                0x000000004000e8e4                COM3_POINT_INIT
                0x00000000400148c8                BT_flash_init
                0x000000004000e618                SLE_OPEN
                0x0000000040014a40                BT_flash_shutdown
                0x000000004000ffac                ICONCSS
                0x00000000400116bc                UART_FLOW_CONTROL_MODE
                0x00000000400138bc                ENTER_REBOOT
                0x000000004001167c                ASYNC_SEL
                0x000000004001162c                SCARD_SEL
                0x00000000400116f8                READ_UART
                0x00000000400109d4                USE_PRTFONT_2B
                0x0000000040012d54                SAVE_CURSORE
                0x000000004000e710                COM2RXCOUNT
                0x00000000400102e4                GRAMOVE_ON
                0x00000000400128bc                RDCOM0
                0x0000000040010514                _GRA_SCROLL
                0x0000000040011664                CONNECT_PC_TO_PINPAD
                0x000000004001168c                _COMM_RESET
                0x0000000040013934                MODEM_START
                0x0000000040012650                WRITE_COM0
                0x00000000400118e0                WRGEM
                0x000000004001020c                CLEAR_ICON_CLOCK
                0x00000000400106f8                ASC2HEX
                0x0000000040010f78                LCDBOX_OFF
                0x000000004000efdc                LCDDISP
                0x0000000040011fc0                BDeltaMS
                0x000000004001393c                MODEM_STOP
                0x000000004000ea48                LEDOFFS
                0x0000000040011600                MODEM_SEL
                0x0000000040011824                GEMRXGET
                0x0000000040013964                MODEM_SERVICE
                0x0000000040012688                RDCOM3
                0x0000000040011710                UART_ENABLE
                0x00000000400115f8                RS232_SEL
                0x000000004000e774                UART_SETUP
                0x000000004000fc48                SEGLD
                0x0000000040010a1c                LCDCURD
                0x00000000400116d8                UART_ENABLE_ASM
                0x0000000040010780                HEX2ASC
                0x000000004000e83c                COM0_POINT_INIT
                0x00000000400116ac                RTS_SET
                0x00000000400121dc                WRITE_COM3
                0x000000004000ea20                MAKEOFFLINE
                0x000000004000f864                LCD_DISPLAY
                0x000000004000eec4                STR_SUB
                0x0000000040013adc                INFO_DISPLAY
                0x000000004000e6dc                DTR_LOW
                0x000000004000e91c                UART_POINT_INIT
                0x000000004001181c                GEMTX_ENABLE
                0x0000000040012214                WRCOM2
                0x000000004000e7d4                PIN_TX_ENABLE
                0x0000000040014b48                BT_flash_erase
                0x000000004000fa88                FONT_LOAD
                0x0000000040014eb4                BT_flash_unprotect
                0x000000004001163c                AUX_SEL
                0x0000000040010fcc                LCDBLK_OFF
                0x0000000040011fb8                RDGEM
                0x000000004000e8ac                COM2_POINT_INIT
                0x0000000040010c74                BINVERT_COM
                0x0000000040011700                WRITE_UART
                0x0000000040010ec0                GETDPOS
                0x000000004000fc84                ICON_DISPLAY
                0x0000000040015bb8                GET_PROD_ID
                0x000000004000ee68                GET_CURSORP
                0x0000000040013944                MODEM_BLIND
                0x000000004000e808                PIN_DISABLE
                0x000000004001166c                DISCONNECT_PC_TO_PINPAD
                0x0000000040011778                GEMRXPOINT_INIT
                0x00000000400124d4                WRITE_COM1
                0x0000000040011674                SYNC_SEL
                0x0000000040012800                RDCOM1
                0x000000004000ea40                LEDONS
                0x000000004000e7a0                PIN_RX_ENABLE
                0x0000000040013624                BIOS_WRITE
                0x0000000040013c38                nmi_display_routine
                0x000000004000e9c0                HEAD_CENTER
                0x0000000040011610                SELCOM
                0x000000004000f770                CHAR_DISPLAY
                0x000000004001098c                USE_LCDFONT_2B
                0x000000004001169c                DTR_SET
                0x0000000040012e24                NUMENG_DISPLAY
                0x0000000040015cbc                SAVE_PROD_ID
                0x000000004000f4a8                ALLDISP
                0x0000000040013970                LCDprintf
                0x00000000400137d0                FINDEXIST_STRING
                0x000000004000edf8                SET_PRINTER_CURRENT_LIMIT
                0x0000000040013634                ERASE_BOOT
                0x0000000040012744                RDCOM2
                0x000000004001271c                READ_COM3
                0x0000000040011624                SERIAL2_SEL
                0x000000004000ee40                LCD_ON
                0x0000000040014604                DELETE_APPLICATION
                0x000000004000f704                DISPLAY_LINE
                0x0000000040012950                READ_COM0
                0x0000000040011194                LCDBOX_DISPLAY
                0x00000000400106bc                ASC2HES
                0x00000000400127d8                READ_COM2
                0x0000000040013164                TEXT_EDIT
                0x00000000400146d4                flash_memcpy
                0x000000004000e954                PIN_ENTRY_PROCESS
                0x0000000040013618                SAVE_BOOT
                0x000000004000ede0                SAVE_PRINT_KEY
                0x000000004001392c                SYSTEM_DOWNLOAD
                0x0000000040012358                WRITE_COM2
                0x0000000040012390                WRCOM1
                0x0000000040013730                FINDAPP_STRING
                0x000000004001100c                LCDBLK_ON
                0x00000000400114d8                LCD_BLINKING
                0x0000000040011644                SET_SERIAL_OUTPUT
                0x00000000400108fc                USE_LCDFONT
                0x0000000040014a5c                BT_flash_get_info
                0x0000000040012d9c                SAVE_SPACE
                0x0000000040011798                BCD2ASC
                0x0000000040012978                LCDBLKOFF
                0x0000000040011608                HI_SEL
                0x0000000040010040                ICONCKM
                0x000000004000ea64                KBUFFER_SAVE
                0x0000000040011728                GEMRXPOINT_RESET
                0x0000000040010ef4                GET_DISP_POSITION
                0x00000000400138ac                WEARCHAPP
                0x00000000400129b0                LCDBLKON
                0x0000000040015944                XXX_YYY_ZZZ
                0x000000004000f7b8                CHAR_DISPLAYC
                0x0000000040011694                RESET_UART
                0x0000000040014460                GET_APPLICATION_NAME
 .lib.prog      0x0000000040015e5c     0x29fc ././btlib/bt_driver/prtutil.o
                0x0000000040015efc                ENABLE_PRINTER_PROTECTION
                0x0000000040015e88                SET_FORMFEED
                0x0000000040015e6c                SEEK_NO_PAPER
                0x0000000040016968                GET_CHAR_ADDRESS
                0x0000000040016a34                PcopyToDotNormalE
                0x0000000040016514                PRINTER_WORKING
                0x000000004001679c                HEAD_SEEK
                0x0000000040015f0c                DISABLE_PRINTER_PROTECTION
                0x00000000400160ec                PRINTING_SUB
                0x0000000040015fd0                SET_PRINTING_PREFERENCE
                0x0000000040017a1c                LINE_PRINT
                0x0000000040015f20                PRINT_FROM_FIRST
                0x00000000400161c4                PRINTING_SVC
                0x0000000040016814                NOPRT_CHK
                0x0000000040015ebc                SET_LINESPACE
                0x0000000040015e5c                BLINKING_OFF
                0x00000000400169c0                GET_PRT_CHINA
                0x0000000040016078                EBUFFER_SAVE
                0x0000000040016408                UNDER_PAGE_CHECK
                0x0000000040017484                PcopyToDotDoubleH
                0x0000000040016c10                PcopyToDotDoubleE
                0x00000000400167c8                PAPER_SEEK
                0x000000004001605c                AFTERERROR
                0x000000004001600c                ASSIGN_GRAPHICS
                0x00000000400167f4                USE_DWFONT
                0x0000000040015e64                SET_PAPER_FEED
                0x000000004001716c                PcopyToDotNormalH
                0x0000000040015ee4                SET_PRINT_MODE
 *(.lib.text)
 .lib.text      0x0000000040018858      0x79c ././btlib/bt_driver/asmutil.o
                0x0000000040018e9c                REF_STRING
                0x0000000040018a30                CODEZ8
                0x0000000040018c5c                NDISPPT
                0x0000000040018dbc                INFO_DISPMSG
                0x0000000040018acc                ASCIIT2
                0x0000000040018e44                NMI_DISPMSG
                0x0000000040018ea0                REF_STRS
                0x0000000040018afc                EXIST_STRING
                0x0000000040018a2c                CODEZ2
                0x0000000040018af4                APP_STRING
                0x0000000040018e88                BITEL_VERMSG
                0x0000000040018c80                NDISPPT240
                0x0000000040018d5c                POWER240_ICON
                0x0000000040018a50                CODE72
                0x00000000400188c0                LINEOFT
                0x00000000400189ac                TONE_TIME
                0x0000000040018a60                RAMENDADDR
                0x0000000040018a40                CODE62
                0x0000000040018b0c                FLYTEXT
                0x00000000400189ec                TONE_DATA
                0x0000000040018a9c                NUMBERT
                0x0000000040018c9c                BATTERY240_ICON
                0x0000000040018a48                CODE11
                0x0000000040018aa8                ASCIIT
                0x0000000040018bcc                ICONCLKD
                0x0000000040018af8                BOOT_STRING
                0x0000000040018a98                RAMKEEPDATA
                0x0000000040018858                MEMSZIELIMIT_TABLE
                0x0000000040018c94                NDISPPG240
                0x0000000040018870                ODDTBL
                0x0000000040018c4c                BCD2ASC_TABLE
                0x0000000040018880                T1ODDTBL
                0x0000000040018fe8                STR_BTPRODID
                0x0000000040018b2c                ICONDATA
                0x0000000040018a38                CODEZ62
                0x00000000400188e4                TONE_FREQ
                0x0000000040018a34                CODE08
                0x00000000400188e0                RTCAMPM
                0x0000000040018a80                ROMMAXSIZE
                0x0000000040018a58                CODEZ1
                0x0000000040018a70                RAMSPADDR
                0x00000000400188d0                RTCWTBL
                0x0000000040018bc4                ICONCLKP
                0x00000000400188c4                BATTERYLEVEL
                0x00000000400188c8                CLKVTBL
                0x0000000040018af0                ONFLY_STRING
 .lib.text      0x0000000040018ff4      0x618 ././btlib/bt_driver/prtutil.o
                0x0000000040019288                TEMP_TBL
                0x0000000040019110                INTTIMES_TBL
                0x00000000400195f0                LFSTEP
                0x0000000040019558                GRASTB_TBL
                0x00000000400195ac                PRTPREF_TBL
                0x0000000040019318                STBCNT_TBL
                0x00000000400195a4                STBSIG4_TBLN
                0x0000000040019598                STBSIG1_TBLN
                0x00000000400195f8                CHAR_TABLE
                0x00000000400190f4                INTTIME_TBL
                0x0000000040019418                GRADENS_TBL
                0x00000000400195cc                GRASPOS_TBL
                0x00000000400191c0                INTTIMEL_TBL
                0x0000000040018ff4                DOT2BIT
                0x0000000040019518                GRAOFFS_TBL
                0x0000000040019270                INTTIME_ACC
                0x00000000400195a0                STBSIG3_TBLN
                0x000000004001959c                STBSIG2_TBLN
 .lib.text      0x000000004001960c     0x3000 ././btlib/bt_driver/prtfont.o
                0x000000004001960c                PRTFENG
 *(.prtpmlogo.text)
 .prtpmlogo.text
                0x000000004001c60c     0x14a4 ././btlib/lib/prtpmlogo.o
                0x000000004001c60c                PMPrinterLogo
 *(.prtbitellogo.text)
 .prtbitellogo.text
                0x000000004001dab0      0x204 ././btlib/lib/prtbitellogo.o
                0x000000004001dab0                BitelPrinterLogo
 *(.des_ecb.prog)
 *(.des_ecb.text)
 *(.btsclib.prog)
 .btsclib.prog  0x000000004001dcb4     0x1630 ././btlib/lib/btsclib.o
                0x000000004001e370                strcpy
                0x000000004001e25c                memmove
                0x000000004001f1a8                atol
                0x000000004001f2ac                labs
                0x000000004001e1d4                memcpy
                0x000000004001decc                islower
                0x000000004001e110                tolower
                0x000000004001df54                ispunct
                0x000000004001dfe4                isspace
                0x000000004001e084                isxdigit
                0x000000004001ee10                strtol
                0x000000004001ea04                strrchr
                0x000000004001e490                strcat
                0x000000004001e7e0                memchr
                0x000000004001eb5c                strstr
                0x000000004001f1e0                rand
                0x000000004001e040                isupper
                0x000000004001e714                strncmp
                0x000000004001e3dc                strncpy
                0x000000004001ddac                isascii
                0x000000004001ec58                strtok
                0x000000004001e5e8                memcmp
                0x000000004001dd40                isalpha
                0x000000004001e520                strncat
                0x000000004001ed4c                memset
                0x000000004001f25c                srand
                0x000000004001de88                isgraph
                0x000000004001dcb4                isalnum
                0x000000004001df10                isprint
                0x000000004001e68c                strcmp
                0x000000004001e1c0                toascii
                0x000000004001e8d0                strcspn
                0x000000004001de44                isdigit
                0x000000004001f170                atoi
                0x000000004001ddec                iscntrl
                0x000000004001eaa8                strspn
                0x000000004001edc0                strlen
                0x000000004001e168                toupper
                0x000000004001f274                abs
                0x000000004001e864                strchr
                0x000000004001e96c                strpbrk
 *(.btsclib.text)
 .btsclib.text  0x000000004001f2e4      0x104 ././btlib/lib/btsclib.o
                0x000000004001f2e4                _ctype
 *(.sysinfo.prog)
 .sysinfo.prog  0x000000004001f3e8       0xf8 ././btlib/lib/sysinfo.o
                0x000000004001f470                SYSINFO_GetHWInformation
                0x000000004001f3e8                SYSINFO_GetBiosVersion
 *(.memlib.prog)
 .memlib.prog   0x000000004001f4e0      0x2b4 ././btlib/lib/memlib.o
                0x000000004001f4e0                MEMLIB_SetFlashSectorSize
                0x000000004001f6d4                MEMLIB_GetFlash1SectorErasingConditionWithBytes
                0x000000004001f580                MEMLIB_GetFlashBytesBlankStatus
                0x000000004001f604                MEMLIB_GetFlash1SectorErasingCondition
                0x000000004001f4f8                MEMLIB_GetFlash1SectorBlankStatus
 *(.beeplib.prog)
 .beeplib.prog  0x000000004001f794       0xd4 ././btlib/lib/beeplib.o
                0x000000004001f7c4                Beep_KeySoundDisable
                0x000000004001f818                Beep_EventSound
                0x000000004001f808                Beep_EventSoundDisable
                0x000000004001f7f4                Beep_EventSoundEnable
                0x000000004001f794                Beep_KeySoundEnable
 *(.rtclib.prog)
 .rtclib.prog   0x000000004001f868     0x1c74 ././btlib/lib/rtclib.o
                0x00000000400201f8                RTC_GetGregorianLeapMonth
                0x0000000040020dd8                RTC_Jalali2Gregorian
                0x000000004001f8e8                RTC_SetDateTime
                0x000000004001fb98                RTC_CheckGregorianInputDateTime
                0x000000004002047c                RTC_GetTime
                0x000000004002001c                RTC_GetGregorianDay
                0x000000004001f868                RTC_GetDateTime
                0x0000000040020764                RTC_Gregorian2Jalali
                0x00000000400202bc                RTC_GetGregorianBigMonth
                0x00000000400202e0                RTC_GetGregorianDays
 *(.rtclib.text)
 .rtclib.text   0x00000000400214dc       0x3c ././btlib/lib/rtclib.o
 *(.timerlib.prog)
 .timerlib.prog
                0x0000000040021518      0x368 ././btlib/lib/timerlib.o
                0x00000000400215ac                TIMER_GetElapsed10MSTime
                0x00000000400217dc                TIMER_WaitKeyPress1MS
                0x0000000040021598                TIMER_Get10MSTimer
                0x0000000040021618                TIMER_Get1SECTimer
                0x000000004002152c                TIMER_GetElapsed1MSTime
                0x0000000040021518                TIMER_Get1MSTimer
                0x000000004002177c                TIMER_Wait1MS
                0x0000000040021718                TIMER_GetElapsed1SECTime
 *(.msrlib.prog)
 .msrlib.prog   0x0000000040021880     0x10a4 ././btlib/lib/msrlib.o
                0x00000000400220cc                MSR_GetCardPAN
                0x00000000400226f4                MSR_CheckLuhnCheckSum
                0x0000000040022254                MSR_GetCardExpiryDate
                0x0000000040021880                MSR_GetTrack1Data
                0x0000000040021dd0                MSR_GetTrack3Data
                0x0000000040021a84                MSR_GetTrack2Data
                0x0000000040022454                MSR_GetCardServiceCode
                0x0000000040021f24                MSR_GetCardholderName
                0x00000000400228ac                MSR_ClearAllCardDataBuffer
 *(.commlib.prog)
 .commlib.prog  0x0000000040022924      0xa94 ././btlib/lib/commlib.o
                0x0000000040022b1c                RS232_ClearPointer
                0x0000000040022924                RS232_OpenPort
                0x0000000040022be8                RS232_ClearBuffer
                0x00000000400232a0                RS232_CheckRxInput
                0x0000000040022f54                RS232_Write
                0x0000000040023260                RS232_WaitTxDone
                0x0000000040022d74                RS232_Read
                0x0000000040023208                RS232_CheckTxDone
 *(.commlib.text)
 .commlib.text  0x00000000400233b8       0x20 ././btlib/lib/commlib.o
                0x00000000400233b8                BAUD_RATE_TABLE
 *(.lcdlib.prog)
 .lcdlib.prog   0x00000000400233d8      0xad8 ././btlib/lib/lcdlib.o
                0x0000000040023598                LCD_HighlightOff
                0x00000000400234d4                LCD_HighlightOn
                0x00000000400236ac                LCD_HighlightLineOff
                0x000000004002365c                LCD_HighlightLineOn
                0x000000004002382c                LCD_ClearScreen
                0x00000000400233d8                LCD_CursorOn
                0x0000000040023794                LCD_HighlightAllOff
                0x00000000400236fc                LCD_HighlightAllOn
                0x00000000400238d4                LCD_ClearLine
                0x0000000040023c58                LCD_DisplayLine
                0x0000000040023928                LCD_DisplayChar
                0x000000004002346c                LCD_CursorOff
                0x0000000040023a10                LCD_DisplayString
 *(.lcdlib.text)
 .lcdlib.text   0x0000000040023eb0       0x14 ././btlib/lib/lcdlib.o
 *(.keylib.prog)
 .keylib.prog   0x0000000040023ec4     0x44bc ././btlib/lib/keylib.o
                0x0000000040025fb4                KEY_InputChristianDate
                0x00000000400267c4                KEY_InputIranianDateTime
                0x00000000400255d0                KEY_InputChristianDateTime
                0x00000000400280ec                KEY_CheckIPAddress
                0x00000000400246fc                KEY_InputAmount
                0x000000004002463c                KEY_InputOneNo
                0x00000000400253ec                KEY_InputPassWord
                0x0000000040027058                KEY_InputIranianDate
                0x0000000040027b74                KEY_InputIPAddress
                0x0000000040027718                KEY_InputTime
                0x0000000040024fd8                KEY_InsertCommaAndDot
                0x0000000040023ec4                KEY_InputNoString
 *(.country.text)
 .country.text  0x0000000040028380       0x40 ././btlib/lib/country.o
                0x0000000040028380                MODEM_COUNTRY_CODE
 *(.hsmodem.prog)
 *(.hsmodem.text)
 *(.unzip.prog)
 .unzip.prog    0x00000000400283c0     0x3dd0 ././btlib/lib/unzip.o
                0x000000004002bfc0                Decompress
                0x000000004002c178                Unzip_SetFlashSectorSize
 *(.unzip.text)
 .unzip.text    0x000000004002c190      0x1c8 ././btlib/lib/unzip.o
 *(.tmslib.prog)
 .tmslib.prog   0x000000004002c358     0x2964 ././btlib/lib/tmslib.o
                0x000000004002ea94                TMS_CalDownloadROMFileLRC
                0x000000004002e7c8                TMS_SendDownloadDataAckNak
                0x000000004002d54c                SetTMSGprsModel
                0x000000004002d6e8                TMS_ClearBuf
                0x000000004002e978                TMS_SendDownloadEndAckNak
                0x000000004002c358                TMS_Process
                0x000000004002e6b4                TMS_SendDownloadStart
                0x000000004002da1c                TMS_SendResumePgmParamDownload
 *(.tmslib.text)
 .tmslib.text   0x000000004002ecbc       0x38 ././btlib/lib/tmslib.o
 *(.reftable)
 .reftable      0x000000004002ecf4       0x54 ././reftable.o
                0x000000004002ecf4                REFTABLE
 hal*(.text .rodata*)
 .text          0x000000004002ed48      0x164 ./lib/emvlib.a(hal_scs_cancel.o)
                0x000000004002ed48                hal_scs_cancel
 .text          0x000000004002eeac      0xa54 ./lib/emvlib.a(hal_scs_dev.o)
                0x000000004002f180                hal_scs_dev_cancel_transfer
                0x000000004002f0f4                hal_scs_dev_receive_data
                0x000000004002f4a8                hal_scs_dev_set_conv
                0x000000004002eeac                hal_scs_dev_send_data
                0x000000004002eef8                hal_scs_dev_send_data_T1
                0x000000004002f134                hal_scs_dev_receive_data_T1
                0x000000004002f694                SCIB_SET_BIT
                0x000000004002f41c                hal_scs_dev_gt_load
                0x000000004002f520                hal_scs_dev_read_reg
                0x000000004002f7c4                SCIB_CLR_BIT
                0x000000004002f330                hal_scs_dev_wt_load
                0x000000004002f5e0                hal_scs_dev_write_reg
                0x000000004002f2a4                hal_scs_dev_etu_load
 .text          0x000000004002f900      0x560 ./lib/emvlib.a(hal_scs_init.o)
                0x000000004002f900                hal_scs_init
 .text          0x000000004002fe60      0x6d8 ./lib/emvlib.a(hal_scs_ioctl.o)
                0x000000004002fe60                hal_scs_ioctl
 .rodata        0x0000000040030538       0x68 ./lib/emvlib.a(hal_scs_ioctl.o)
 .text          0x00000000400305a0      0x88c ./lib/emvlib.a(hal_scs_isr.o)
                0x0000000040030c38                hal_scs_isr2
                0x0000000040030a44                hal_scs_isr1
                0x00000000400305a0                hal_scs_isr
                0x0000000040030848                hal_scs_isr0
 .text          0x0000000040030e2c      0x21c ./lib/emvlib.a(hal_scs_set_config.o)
                0x0000000040030e2c                hal_scs_set_config
 .text          0x0000000040031048     0x1264 ./lib/emvlib.a(hal_apm.o)
                0x0000000040031598                hal_apm_set_cpu_mode_idle
                0x00000000400311f8                hal_apm_get_clock_frequency
                0x0000000040031f44                hal_apm_isr
                0x0000000040031c20                hal_apm_ioctl
                0x0000000040031048                hal_apm_init
                0x0000000040031a14                hal_apm_set_device_mode
                0x00000000400314f0                hal_apm_set_cpu_mode_normal
                0x00000000400312a8                hal_apm_set_cpu_mode_ultra_low_power
                0x00000000400317dc                hal_apm_reset_device
                0x00000000400316a0                hal_apm_get_cpu_mode
                0x00000000400310f4                hal_apm_shutdown
                0x0000000040031b3c                hal_apm_get_device_mode
                0x0000000040031d34                hal_apm_attach
                0x0000000040031e50                hal_apm_detach
                0x0000000040031108                hal_apm_set_clock_frequency
                0x0000000040032054                hal_apm_ack_cpu_mode_ultra_low_power
 .rodata        0x00000000400322ac       0x14 ./lib/emvlib.a(hal_apm.o)
 .text          0x00000000400322c0     0x24d8 ./lib/emvlib.a(hal_flash.o)
                0x0000000040032dd0                hal_flash_suspend
                0x0000000040033a18                hal_flash_otp_read
                0x000000004003290c                hal_flash_erase_sectors
                0x0000000040033764                hal_flash_otp_write
                0x0000000040033664                hal_flash_detach
                0x0000000040033570                hal_flash_attach
                0x00000000400324a0                hal_flash_shutdown
                0x0000000040032cac                hal_flash_write
                0x0000000040033b88                hal_flash_isr
                0x00000000400328d8                hal_flash_erase
                0x00000000400333c0                hal_flash_sign128
                0x000000004003282c                hal_flash_lock
                0x0000000040032d40                hal_flash_read
                0x0000000040033484                hal_flash_otp_sign128
                0x0000000040032534                hal_flash_get_info
                0x0000000040033b08                hal_flash_otp_read2
                0x0000000040033420                hal_flash_sign16
                0x00000000400334f8                hal_flash_otp_sign16
                0x0000000040033998                hal_flash_otp_write2
                0x000000004003308c                hal_flash_sign
                0x00000000400324bc                hal_flash_get_status
                0x00000000400322c0                hal_flash_init
                0x0000000040032ea0                hal_flash_resume
 .rodata        0x0000000040034798       0x20 ./lib/emvlib.a(hal_flash.o)
 .text          0x00000000400347b8     0x176c ./lib/emvlib.a(hal_i2c.o)
                0x0000000040035bbc                hal_i2c_write
                0x00000000400347b8                hal_i2c_init
                0x000000004003495c                hal_i2c_set_config
                0x0000000040035468                hal_i2c_detach
                0x0000000040035eb0                hal_i2c_stop_read
                0x0000000040035c8c                hal_i2c_start_read
                0x0000000040035da8                hal_i2c_read
                0x0000000040035a00                hal_i2c_start_write
                0x0000000040034ca8                hal_i2c_ioctl
                0x000000004003528c                hal_i2c_attach
                0x0000000040035704                hal_i2c_isr
                0x0000000040035908                hal_i2c_get_status
                0x0000000040034910                hal_i2c_shutdown
 .rodata        0x0000000040035f24       0x38 ./lib/emvlib.a(hal_i2c.o)
 .text          0x0000000040035f5c      0x324 ./lib/emvlib.a(hal_intr.o)
                0x00000000400360e0                hal_interrupt_get_isr
                0x0000000040035f5c                hal_interrupt_set_config
                0x0000000040036010                hal_interrupt_decode
                0x0000000040036200                hal_interrupt_detach
                0x000000004003615c                hal_interrupt_attach
 .rodata        0x0000000040036280       0x5c ./lib/emvlib.a(hal_intr.o)
 .text          0x00000000400362dc      0x268 ./lib/emvlib.a(hal_libc.o)
                0x00000000400364bc                hal_memcpy
                0x00000000400362dc                hal_memcmp
                0x0000000040036448                hal_memset
 .text          0x0000000040036544      0x600 ./lib/emvlib.a(hal_sys_alloc.o)
                0x00000000400366a4                hal_sys_pool_config
                0x0000000040036724                hal_sys_alloc
                0x0000000040036690                hal_sys_pool_shutdown
                0x00000000400368a0                hal_sys_free
                0x0000000040036544                hal_sys_pool_init
 .text          0x0000000040036b44     0x19d0 ./lib/emvlib.a(hal_timer.o)
                0x0000000040036b44                hal_timer_init
                0x000000004003796c                hal_timer_ioctl
                0x0000000040036c38                hal_timer_shutdown
                0x000000004003831c                hal_timer_detach
                0x0000000040038440                hal_timer_isr
                0x0000000040037538                hal_timer_get_status
                0x00000000400381b4                hal_timer_attach
                0x00000000400377f0                hal_timer_read
                0x000000004003766c                hal_timer_run
                0x000000004003772c                hal_timer_stop
                0x0000000040036f4c                hal_timer_set_config
 .text          0x0000000040038514      0x2a0 ./lib/emvlib.a(hal_apm_clock.o)
                0x0000000040038598                hal_apm_soft_change_clock_frequency
                0x0000000040038514                hal_apm_change_clock_frequency
 .text          0x00000000400387b4       0x44 ./lib/emvlib.a(hal_intr_mask.o)
                0x00000000400387b4                hal_interrupt_mask
                0x00000000400387d8                hal_interrupt_unmask
 .text          0x00000000400387f8      0x1cc ./lib/emvlib.a(hal_scs_analog.o)
                0x00000000400387f8                hal_scs_analog_check
                0x0000000040038918                hal_scs_analog_check_voltage
                0x000000004003886c                hal_scs_analog_card_presence
 .text          0x00000000400389c4      0x1ac ./lib/emvlib.a(hal_scs_clock.o)
                0x00000000400389c4                hal_scs_set_clock
 .text          0x0000000040038b70      0x58c ./lib/emvlib.a(hal_scs_counter.o)
                0x0000000040038d9c                hal_scs_counter_halt
                0x0000000040038d50                hal_scs_counter_start_bgt
                0x0000000040038c88                hal_scs_counter_start
                0x0000000040038f30                hal_scs_calculate_wt
                0x0000000040038e00                hal_scs_counter_set_gt
                0x0000000040038b70                hal_scs_counter_etu_set
                0x0000000040038eb4                hal_scs_counter_get_bgt
 .rodata        0x00000000400390fc       0x44 ./lib/emvlib.a(hal_scs_counter.o)
                0x00000000400390fc                hal_scs_ftab
                0x000000004003911c                hal_scs_dtab
 .text          0x0000000040039140      0x134 ./lib/emvlib.a(hal_scs_attach.o)
                0x0000000040039140                hal_scs_attach
 .text          0x0000000040039274       0xdc ./lib/emvlib.a(hal_scs_get_last_error.o)
                0x0000000040039274                hal_scs_get_last_error
 .text          0x0000000040039350      0x108 ./lib/emvlib.a(hal_scs_get_slot_info.o)
                0x0000000040039350                hal_scs_get_slot_info
 .text          0x0000000040039458      0x308 ./lib/emvlib.a(hal_scs_get_status.o)
                0x0000000040039458                hal_scs_get_status
 .text          0x0000000040039760      0x1e0 ./lib/emvlib.a(hal_scs_power_down.o)
                0x0000000040039760                hal_scs_power_down
 .text          0x0000000040039940      0x7cc ./lib/emvlib.a(hal_scs_power_up.o)
                0x0000000040039940                hal_scs_power_up
 .text          0x000000004003a10c      0x4c8 ./lib/emvlib.a(hal_scs_pps_exchange.o)
                0x000000004003a10c                hal_scs_pps_exchange
 .text          0x000000004003a5d4      0x1d4 ./lib/emvlib.a(hal_scs_set_slot_info.o)
                0x000000004003a5d4                hal_scs_set_slot_info
 .text          0x000000004003a7a8      0x5f4 ./lib/emvlib.a(hal_scs_t1_block.o)
                0x000000004003a7a8                hal_scs_t1_block
 .text          0x000000004003ad9c      0xa70 ./lib/emvlib.a(hal_scs_vsr_power_up.o)
                0x000000004003b614                hal_scs_atr_get_TCK
                0x000000004003b764                hal_scs_atr_get_interface_byte_num
                0x000000004003b6e4                hal_scs_atr_check_TDx
                0x000000004003ad9c                hal_scs_vsr_power_up
 .rodata        0x000000004003b80c       0x18 ./lib/emvlib.a(hal_scs_vsr_power_up.o)
 .text          0x000000004003b824      0x550 ./lib/emvlib.a(hal_scs_vsr_pps_exchange.o)
                0x000000004003b824                hal_scs_vsr_pps_exchange
 .rodata        0x000000004003bd74       0x14 ./lib/emvlib.a(hal_scs_vsr_pps_exchange.o)
 .text          0x000000004003bd88      0x5f8 ./lib/emvlib.a(hal_scs_vsr_t1_block.o)
                0x000000004003bd88                hal_scs_vsr_t1_block
 .rodata        0x000000004003c380       0x14 ./lib/emvlib.a(hal_scs_vsr_t1_block.o)
 .text          0x000000004003c394      0x234 ./lib/emvlib.a(hal_scs_handler.o)
                0x000000004003c4d8                hal_scs_handler_empty
                0x000000004003c460                hal_scs_handler_tx
                0x000000004003c394                hal_scs_handler_parity
 .text          0x000000004003c5c8      0x52c ./lib/emvlib.a(hal_scs_t0_in.o)
                0x000000004003c5c8                hal_scs_t0_in
 .text          0x000000004003caf4      0x50c ./lib/emvlib.a(hal_scs_t0_out.o)
                0x000000004003caf4                hal_scs_t0_out
 .text          0x000000004003d000      0x584 ./lib/emvlib.a(hal_scs_vsr_t0_in.o)
                0x000000004003d000                hal_scs_vsr_t0_in
 .rodata        0x000000004003d584       0x14 ./lib/emvlib.a(hal_scs_vsr_t0_in.o)
 .text          0x000000004003d598      0x4ac ./lib/emvlib.a(hal_scs_vsr_t0_out.o)
                0x000000004003d598                hal_scs_vsr_t0_out
 .rodata        0x000000004003da44       0x28 ./lib/emvlib.a(hal_scs_vsr_t0_out.o)
 emv*(.text .rodata*)
 .text          0x000000004003da6c      0x2c0 ./lib/emvlib.a(emv_init.o)
                0x000000004003da6c                emv_init
 .text          0x000000004003dd2c      0x3dc ./lib/emvlib.a(emv_timer.o)
                0x000000004003de10                emv_timer_init
                0x000000004003e0bc                emv_timer_halt
                0x000000004003dfd8                emv_timer_run
                0x000000004003dd2c                emv_timer_handler
 .rodata        0x000000004003e108       0x20 ./lib/emvlib.a(emv_timer.o)
                0x000000004003e108                emv_timer_clocks
 .text          0x000000004003e128     0x32d4 ./lib/emvl2.a(emv_APDU.o)
                0x0000000040040c40                fnAsc2Bcd
                0x000000004003ea08                gsc_ISOwrite
                0x0000000040041118                pfnHex2Asc
                0x00000000400409bc                debug_DOL
                0x000000004003ebb8                gsc_ISOread
                0x000000004003fff0                getTagInfo
                0x000000004003ef1c                ApduC4
                0x000000004003e6fc                gsc_SetCardTYPEandSLOT
                0x000000004003e254                gsc_Power
                0x0000000040041380                pfnRTC2YMDHMS
                0x000000004003ff90                getSysDOLsize
                0x000000004003e128                gsc_FWversion
                0x0000000040040ddc                fnD642Bcd
                0x0000000040040bb0                debugCDOL
                0x0000000040040f7c                fnBcd2D64
                0x0000000040040390                getDnL
                0x00000000400405ac                debug_FCI
                0x000000004003f508                ApduResponseCheck
                0x000000004003e53c                gsc_Status
                0x000000004003fd70                getEMVgbPinBlock
                0x000000004003ed14                Apdu
                0x0000000040041240                pfnAsc2Hex
                0x000000004003e634                gsc_ChangeParameters
                0x000000004003f870                pgbAppBufUpdate
                0x000000004003f7c0                pgbAppBufAdjust
                0x000000004003f288                ApduC2
                0x0000000040040110                getTnL
 *fill*         0x00000000400413fc        0x4 00
 .rodata        0x0000000040041400      0x508 ./lib/emvl2.a(emv_APDU.o)
                0x0000000040041468                gcTagName
                0x0000000040041400                fileNameCAPK
 .text          0x0000000040041908     0x1530 ./lib/emvlib.a(emv_power_up.o)
                0x0000000040042cf4                emv_power_up_ifsd_handle
                0x0000000040042940                emv_power_up_pps_handle
                0x0000000040041d58                emv_power_up_handler
                0x0000000040041908                emv_power_up
                0x000000004004272c                emv_pps_check
                0x0000000040042614                emv_pps_send
 .text          0x0000000040042e38      0x10c ./lib/emvlib.a(emv_set_slot_info.o)
                0x0000000040042e38                emv_set_slot_info
 .text          0x0000000040042f44     0x15c0 ./lib/emvlib.a(emv_t1.o)
                0x00000000400431a0                emv_t1_check_block
                0x0000000040042fcc                emv_t1_block
                0x000000004004380c                emv_t1_handler
                0x00000000400435d4                emv_t1_transmit
 .text          0x0000000040044504      0x2bc ./lib/emvlib.a(emv_transmit.o)
                0x0000000040044504                emv_transmit
 .text          0x00000000400447c0      0xbc0 ./lib/emvlib.a(emv_atr.o)
                0x0000000040045114                emv_calculate_timing
                0x00000000400447c0                emv_atr_parse
                0x00000000400452c8                emv_set_FD_values
 .rodata        0x0000000040045380       0x54 ./lib/emvlib.a(emv_atr.o)
 .text          0x00000000400453d4       0x30 ./lib/emvlib.a(emv_power_down.o)
                0x00000000400453d4                emv_power_down
 .text          0x0000000040045404      0x98c ./lib/emvlib.a(emv_t0.o)
                0x00000000400456b8                emv_t0_handler
                0x0000000040045404                emv_t0_transmit
 .rodata        0x0000000040045d90       0x24 ./lib/emvlib.a(emv_t0.o)
 at83*(.text .rodata*)
 .text          0x0000000040045db4     0x1248 ./lib/emvlib.a(at83c26_api.o)
                0x0000000040045e58                c26_general_init
                0x0000000040046754                c26_start_cvcc2
                0x0000000040046e0c                c26_SC1_auto_deactivate
                0x0000000040045db4                delay_us_atmel
                0x0000000040046c60                c26_start_cvcc5
                0x000000004004610c                c26_start_cvcc1
                0x0000000040045e98                c26_config1_init
                0x0000000040046908                c26_start_cvcc3
                0x0000000040046fc0                c26_SC3_auto_deactivate
                0x0000000040046274                c26_dcdca_start
                0x0000000040046fe8                c26_SC5_auto_deactivate
                0x0000000040046ab4                c26_start_cvcc4
                0x0000000040046fd4                c26_SC4_auto_deactivate
                0x0000000040046360                c26_dcdcb_start
                0x0000000040046fac                c26_SC2_auto_deactivate
 .text          0x0000000040046ffc      0x350 ./lib/emvlib.a(at83c26_lib.o)
                0x0000000040046ffc                twi_send_message_polling
                0x00000000400471f4                c26_read_command
                0x00000000400472d0                c26_write_command
 sc_at83*(.text .rodata*)
 .text          0x000000004004734c     0x13d4 ./lib/emvlib.a(sc_at83c26.o)
                0x0000000040047874                at83c26_set_line_rst
                0x0000000040047fe0                at83c26_ioctl
                0x0000000040047fc8                at83c26_attach
                0x0000000040047ae0                at83c26_set_power_up
                0x0000000040048364                at83c26_get_status
                0x0000000040048674                at83c26_check_selected
                0x0000000040047414                at83c26_select
                0x000000004004734c                valid_itf_atmel
                0x0000000040047e24                at83c26_init
 .rodata        0x0000000040048720      0x124 ./lib/emvlib.a(sc_at83c26.o)
                0x0000000040048720                at83c26_io
 *(.text)
 .text          0x0000000040048844     0x4c68 ././tmsdown.o
                0x000000004004c888                CheckAutoTMSDownloadStart
                0x000000004004aec8                SetTMSVariables
                0x000000004004c440                UpgradePOSParameter
                0x000000004004b090                SaveTMSDownloadInfo
                0x000000004004b050                InitializeTMSDownloadInfo
                0x000000004004b38c                EraseAllDataTMSDownloadInfo
                0x000000004004b3ec                LoadTMSDownloadSectorNo
                0x000000004004c598                BackupOrRestoreAppDownloadData
                0x000000004004b90c                CheckTMSUpgrade
                0x000000004004c2f0                EraseAppDataTMSDownloadInfo
                0x000000004004af4c                LoadTMSDownloadInfo
                0x000000004004c454                WriteApplicationOrParameter1Sector
                0x000000004004ae2c                ClearTMSDownloadBufAndRxBuf
                0x000000004004b170                SetInitialValueToTMSDownloadInfo
                0x0000000040048844                TMSDownloadTask
                0x000000004004cca8                GetAutoTMSDownloadingDate
                0x000000004004c7f0                GetZippedAppFlashSectorTopAddr
                0x000000004004bbb0                UpgradeApplication
                0x000000004004cff8                Output_TMSDownloadInfo
 .text          0x000000004004d4ac      0xa78 ././timeconv.o
                0x000000004004d6c0                time_to_tm
 .text          0x000000004004df24     0x3018 ././scard.o
                0x000000004004fc84                CompletionSub
                0x000000004004e750                appEmvTask
                0x0000000040050f04                TL_SetSlotNo
                0x000000004005096c                isoCardNo22Track2Data
                0x000000004004e088                WaitTxDone
                0x000000004004e140                app_UPDATEgsXRec_ICCbL3
                0x000000004004e124                DebugBUF
                0x000000004004f814                app_InitReferralCall
                0x000000004004f5d0                isoStrPANnExpDate
                0x00000000400507e8                EMVDISP
                0x000000004004fe4c                app_ApplicationSelection
                0x000000004004e1b8                STRDISP
                0x000000004004df24                deltaMS
                0x0000000040050c88                isoTrack2Data2CardNo2
                0x000000004004e1c4                gsc_IFMinit
                0x0000000040050ecc                Wait1MS
                0x000000004004e134                setDEBUG_COMport
                0x000000004004e008                RdCom
                0x000000004004f5b0                app_getPANamounts
                0x000000004004f308                app_SeletedAppTrmParameter
                0x000000004004e3a0                gsc_cmmdOUTPUTngetRESPONSE
                0x000000004004e468                BuildIccData
                0x000000004004e040                WrCom
                0x000000004004e5f4                CheckSmartCardSlot
                0x000000004004f9a4                OnLineProcessSub
                0x0000000040050f24                TL_GetSlotNo
                0x000000004004e14c                Lprintf
                0x000000004005039c                InitEmvLib
 .text          0x0000000040050f3c     0x1730 ././rtc.o
                0x0000000040050f3c                RTCTask
                0x000000004005249c                GetULDateTime
                0x0000000040051c7c                DisplayYYYYMMDD
                0x0000000040051e44                InitializeRTCDateTime
                0x0000000040052320                mktime
                0x0000000040051a34                LCDBacklightOnOffControl
                0x0000000040051d88                Displayhhmmss
                0x0000000040051b38                DisplayDateTime
                0x0000000040051eac                SetRTCDateTimeWhenPowerIsTurnedOn
 .text          0x000000004005266c     0x1c6c ././apppos.o
                0x0000000040053a68                SavePrintTransactionLog
                0x000000004005266c                DebugOutputTrxnLogData
                0x0000000040052f3c                LoadPOSUtilBuf
                0x0000000040053dc0                PrintReversalReceipt
                0x0000000040053bc0                SaveReprintingCount
                0x0000000040052fc4                SavePOSUtilBuf
                0x00000000400532a4                SaveTxTransactionLog
                0x0000000040053bcc                SaveReversalTransactionLog
                0x0000000040053cd4                GotoReversalMode
                0x0000000040054028                PerformReversalTransaction
                0x0000000040053838                SaveRxTransactionLog
                0x0000000040053f1c                PrintUnsuccessfulReversalReceipt
                0x0000000040053028                GetTransactionType
                0x00000000400528d4                DebugOutputTrxnLog
                0x00000000400528e4                GetNextTrxnParameter
 .text          0x00000000400542d8      0x5d8 ././rs232.o
                0x00000000400542d8                RS232Task
                0x000000004005485c                RS232Close
                0x00000000400547d4                RS232Open
 .text          0x00000000400548b0     0x9fec ././printer.o
                0x000000004005ca48                PrintMerchantAddress
                0x0000000040055c58                DetectPaper
                0x000000004005cfd8                PrintMerchantID
                0x000000004005e0c8                PrintBalance
                0x000000004005deac                PrintAmount
                0x000000004005e684                PrintAllEquals
                0x000000004005bb24                BuildReprintBillPaymentWithExternalPrinter
                0x000000004005c99c                PrintMerchantName
                0x000000004005cc3c                PrintDateAndTime
                0x000000004005c8f4                PrintStoreName
                0x000000004005639c                BuildPrintPOSInfoReport
                0x000000004005d16c                PrintTerminalID
                0x000000004005e320                PrintTotal
                0x000000004005e724                OutputReceiptData
                0x000000004005e544                PrintAllStars
                0x000000004005e5e4                PrintAllDashes
                0x00000000400548b0                PrintTask
                0x000000004005d868                PrintReferenceNo
                0x000000004005c614                PrintCardSystem
                0x0000000040055ca8                InitializePrinterParameter
                0x000000004005e2e4                PrintStoreAdvertisement
                0x000000004005c854                PrintPoweredbyPayMaster
                0x000000004005dd6c                PrintTraceNo
                0x00000000400596dc                BuildPrintBalanceReceipt
                0x000000004005a560                BuildPrintUnsuccessfulReversalReceipt
                0x000000004005cf04                PrintBuyTrxnName
                0x0000000040059e3c                BuildPrintReversalReceipt
                0x000000004005cba4                PrintULDateAndTime
                0x000000004005dc2c                PrintSeqNo
                0x000000004005c78c                PrintApplicationVersion
                0x000000004005daec                PrintBatchNo
                0x000000004005d9a8                PrintCustomerID
                0x00000000400589dc                BuildPrintEndOfDayReceipt
                0x000000004005d46c                PrintPAN
                0x000000004005d674                PrintApprovalNo
                0x0000000040057f18                BuildPrintTrxnReceipt
                0x000000004005caf0                PrintMultiMerchantStoreName
                0x000000004005abf8                BuildPrintTrxnsReport
                0x000000004005d2a4                PrintPOSSerialNo
                0x0000000040055e08                BuildPrintLine
                0x000000004005c6e0                PrintPaymasterLogo
                0x000000004005b718                BuildReprintBuyWithExternalPrinter
                0x0000000040055d7c                PrintSetFF
 .text          0x000000004005e89c     0x1914 ././main.o
                0x000000004005e89c                main
                0x000000004005f3b8                Output_SystemInfomation
 .text          0x00000000400601b0     0x1920 ././modem.o
                0x0000000040060994                ModemClose
                0x0000000040060914                ModemOpen
                0x0000000040060c98                AbnormalProcessingAfterTx
                0x0000000040060494                DisplayConnectionErrorConditionAndGotoInitialStatus
                0x0000000040060a68                CheckDisconnect
                0x0000000040060e68                OnlineTrxnResultProcessing
                0x0000000040060588                GetTrxnMenuActiveStatus
                0x00000000400603c4                DisplayConnectionErrorCondition
                0x000000004006021c                GetConnectionConditions
                0x00000000400601b0                ModemTask
                0x0000000040060b1c                AbnormalProcessingBeforeTx
 .text          0x0000000040061ad0     0x1368 ././flash.o
                0x00000000400623b0                LoadFlashPOSUtilInfo
                0x000000004006224c                WriteTransactionLog
                0x0000000040061e90                ResetPOSSetupInfo
                0x00000000400622a4                EraseAllTransactionLog
                0x0000000040061b74                SetInitialPOSSetupInfo
                0x0000000040062100                GetTcpIPLocalParameterChange
                0x0000000040061e40                InitializePOSSetupInfo
                0x0000000040062bcc                InitFlashParameters
                0x0000000040061fb4                WritePOSSetupInfo
                0x0000000040062b74                PauseUntilEnterkeyPressed
                0x0000000040061f54                ResetMerchantPassword
                0x0000000040061ad0                LoadPOSSetupInfo
                0x0000000040062ac0                WritePOSUtil
 .text          0x0000000040062e38    0x104a8 ././key.o
                0x00000000400631c0                BuildTrxnQueryString
                0x0000000040071660                MainStatusSetting
                0x00000000400727cc                ResetHelpDeskTelNo
                0x0000000040064ad0                BuildQueryString
                0x00000000400718ac                DisplayTrxnTelNo
                0x0000000040071f00                DisplayBlackListTelNo
                0x0000000040065110                InputKeyService
                0x0000000040071340                InitializeGlobalVariables
                0x0000000040071608                ClearTempKeyBufAndStringCopy
                0x0000000040071b24                ResetTrxnTelNo
                0x0000000040071720                ErrorDisplayAndGoInitialStatus
                0x00000000400717f8                ErrorDisplayAndGoErrorStatus
                0x0000000040072210                DisplayTMSTelNo
                0x0000000040072488                ResetTMSTelNo
                0x0000000040064d20                KeyTask
                0x0000000040071bf0                DisplayEODTelNo
                0x000000004006479c                SetReversalReqData
                0x0000000040063be4                BuildEftTotalQueryString
                0x000000004006fa0c                CancelKeyService
                0x0000000040072898                DisplayLCDMsgOrPrinterMsgInDebugMode
                0x0000000040071e34                ResetEODTelNo
                0x0000000040072554                DisplayHelpDeskTelNo
                0x0000000040062e38                InitTrxnReqData
                0x0000000040064cb8                dequeue_key
                0x0000000040072144                ResetBlackListTelNo
                0x0000000040063ffc                BuildCallHomeQueryString
                0x0000000040065e64                EnterKeyService
                0x0000000040070dc4                SetInitialStatus
 .text          0x00000000400732e0     0x86dc ././htmlutil.o
                0x0000000040076a04                ProcessEndTag
                0x000000004007b5c0                GetDecryptedSessionKey
                0x0000000040078be4                rc4_init
                0x00000000400762b4                AddTLVBuf
                0x000000004007a9f8                SHA256_Update
                0x000000004007ac9c                SHA256_Final
                0x0000000040078810                BuildHtmlRequestMessage
                0x0000000040078e54                SHA256_Transform
                0x00000000400765f0                ProcessStartTag
                0x0000000040077e8c                NIBSS_Parsing
                0x00000000400732e0                ProcessTagNValue
                0x0000000040076254                pop
                0x000000004007b224                hexStringToByteArray
                0x000000004007a970                SHA256_Init
                0x000000004007b89c                GetEncryptedTrack2
                0x00000000400783e0                GetHostAndMethod
                0x0000000040078d2c                rc4_crypt
                0x000000004007b040                SHA256_End
                0x000000004007b45c                GetValueOnly
                0x000000004007b178                SHA256_Data
                0x00000000400760b8                GetTagName
                0x00000000400761e0                push
                0x0000000040078b44                GetApplIdx
                0x000000004007b7b8                SHA256_Signature
 .text          0x000000004007b9bc     0x3000 ././hwtest.o
                0x000000004007dc14                LCDTest
                0x000000004007b9bc                MSRTest
                0x000000004007df9c                LCDDotTest
                0x000000004007d420                KeyTest_IC5100P
                0x000000004007e144                RS232Test
                0x000000004007e034                LCDContrastTest
                0x000000004007c3d4                ICCardTest
                0x000000004007e618                RTCTest
                0x000000004007caec                KeyTest_IC3100PE
                0x000000004007decc                LCDBacklightTest
 .text          0x000000004007e9bc     0x4218 ././sfontlib.o
                0x000000004007ed9c                InitFontInfo
                0x000000004008293c                LcdDrawTextA
                0x0000000040082284                LcdDrawRectA
                0x0000000040081cb8                lcd_printf
                0x000000004007fe3c                GetBitmap
                0x000000004007eee0                ClrScr
                0x0000000040081d64                lcd_printfA
                0x000000004007ed60                SetDisplayMode
                0x000000004007ee58                CloseFontInfo
                0x000000004007ed8c                GetDisplayMode
                0x00000000400806b0                LcdDisplayA
                0x0000000040080d5c                LcdTextOutA
                0x000000004007fdac                LcdDrawBitmapA
                0x0000000040081e60                LcdDrawPixelA
                0x000000004007f0c8                ClrScrA
                0x000000004007ec84                AttachExtFont
                0x0000000040081fd8                LcdDrawLineA
                0x000000004007e9bc                AddFont
                0x0000000040080c14                GetLcdTextPosA
                0x0000000040080cb8                GetLcdTextMetricsA
                0x000000004008252c                LcdDrawCircleA
                0x0000000040081f8c                GetLcdPixel
                0x0000000040080b78                SetTextPosA
                0x0000000040082698                LcdDrawEllipseA
                0x0000000040080684                LcdDisplay
                0x00000000400811a0                SetLcdULineA
                0x000000004007ee60                SelectFont
                0x0000000040080f48                SetLcdInvertA
                0x0000000040081c58                lcd_putcharA
 .text          0x0000000040082bd4     0x9ff4 ././gsm.o
                0x0000000040082fe0                GprsDataModeWrite
                0x0000000040083614                GprsCheckDisconnect
                0x00000000400832b0                GprsDisplaySIMErrorMessage
                0x0000000040087d10                GprsWavecomDisconnect
                0x0000000040082bd4                GprsOpen
                0x0000000040087c94                GprsDisconnect
                0x0000000040088ba4                GprsCinterionTask
                0x00000000400882e8                GprsCinterionDisconnect
                0x0000000040083780                GprsTask
                0x00000000400888b8                GprsModuleInitialize
                0x0000000040082d5c                GprsPowerOn
                0x00000000400837f0                GprsWavecomTask
                0x000000004008350c                GprsDisplayAntennaLevelBar
                0x00000000400831d0                SendRequestMessage
                0x0000000040082e1c                GprsPowerOff
                0x0000000040082f04                GprsSendCmdSetTime
                0x0000000040082ec0                GprsCmdModeWrite
 .text          0x000000004008cbc8      0x8a8 ././msr.o
                0x000000004008d40c                MSRRead
                0x000000004008d264                ClearAllMSRDataBuf
                0x000000004008d35c                MSREnable
                0x000000004008d3b4                MSRDisable
                0x000000004008cbc8                MSRTask
 .text          0x000000004008d470     0x531c ././btlib/bt_driver/cryptolib.o
                0x0000000040090480                SaveCryptoMem
                0x000000004008df64                CheckServerInfo
                0x000000004008d470                AES_InitCrc16
                0x000000004008fc00                CheckKeyBlockCrc
                0x000000004008f570                AESKeyInit
                0x000000004008fb9c                LoadCryptoTextM
                0x000000004008e6f4                _rtc_read_reg
                0x000000004008f9e4                SaveCryptoText
                0x000000004008d594                MakePublicKey1Checksum
                0x000000004008e8b4                WriteRandom
                0x000000004008e638                _rtc_write_reg
                0x000000004008e920                bitel_crypto_set_key
                0x000000004008f620                AES_CalculateCrc
                0x0000000040090510                CryptoKeyLoad
                0x000000004008e830                ReadRandom
                0x000000004008e504                _GetKeyInfoData
                0x000000004008fb04                LoadCryptoText
                0x000000004008d750                MakeTerminalInfo
                0x000000004008d52c                AES_Crc16
                0x000000004008faa0                SaveCryptoTextM
 .text          0x000000004009278c     0x795c ././btlib/bt_driver/ppdrv.o
                0x00000000400947f0                InputPinpadKey
                0x000000004009329c                RdPED
                0x0000000040099fbc                PinpadBypassTask
                0x0000000040099f1c                InitPinpadBypassTask
                0x00000000400985e0                EncryptWorkingKey
                0x0000000040099ea8                PED_GenerateMAC
                0x0000000040099e2c                PED_LoadInitKey
                0x0000000040099bb8                ComputeMAC
                0x0000000040092f20                InitComm
                0x00000000400930b8                DrvWrCom
                0x000000004009334c                SendRespPacket
                0x0000000040094720                CheckHexVal
                0x0000000040099830                dUKPT_getPEK
                0x0000000040094c4c                PinpadDrvTask
                0x00000000400986f0                SaveDukptKey
                0x0000000040098ee4                dUKPT_LoadInit
                0x000000004009a0ac                GetEncPinBlock
                0x0000000040092fa8                InitPinpadDrv
                0x0000000040092e18                Hex2Char
                0x00000000400930a0                SetPinpadMode
                0x00000000400931f0                WrPED
                0x000000004009278c                DisplayMsg
                0x0000000040093164                DrvRdCom
                0x0000000040092c5c                Char2Hex
                0x0000000040096c00                ProcPinData
                0x0000000040098838                LoadDukptKey
                0x0000000040099d04                PED_EncryptDUKPT
 .text          0x000000004009a0e8     0x159c ././btlib/lib/frmwri.o
                0x000000004009a9d4                _formatted_write
 .text          0x000000004009b684     0x31b0 ././btlib/lib/gsmlib.o
                0x000000004009b684                GprsWavecomInitialization
                0x000000004009d610                GprsCinterionInitialization
 .text          0x000000004009e834      0x59c ././btlib/lib/iconlib.o
                0x000000004009e834                DisplayGraphics
                0x000000004009ea04                DisplayAntennaIcon
                0x000000004009ea48                DisplaySimGprsIcon
                0x000000004009ed8c                DisplayInitialImage
                0x000000004009eb88                DisplayProcessingBar
 .text          0x000000004009edd0      0x114 ././btlib/lib/libc.o
                0x000000004009ee00                vsprintf
                0x000000004009ee68                sprintf
 .text          0x000000004009eee4     0x23c0 ././btlib/lib/magtek_msr.o
                0x000000004009ef8c                MAGTEK_MSR_NewMode_Card_Enable
                0x000000004009f824                MAGTEK_MSR_BuildTripleTrackRawDataWithFirstImageData
                0x00000000400a0ea0                MAGTEK_MSR_BuildTrackData
                0x00000000400a0240                MAGTEK_MSR_BuildForwardTrackRawDataWithSecondImageData
                0x00000000400a1134                MAGTEK_MSR_CheckOddParity
                0x00000000400a1218                Delay_382ns
                0x00000000400a0c1c                MAGTEK_MSR_RetrieveReverseTrackRawDataWithSecondImageData
                0x00000000400a07e0                MAGTEK_MSR_RetrieveReverseTrackRawDataWithFirstImageData
                0x000000004009fb14                MAGTEK_MSR_BuildForwardTrackRawDataWithFirstImageData
                0x00000000400a11b0                MAGTEK_MSR_CheckLRC
                0x000000004009f168                MAGTEK_MSR_NewModeArmedToReadSequence
                0x00000000400a0a58                MAGTEK_MSR_RetrieveForwardTrackRawDataWithSecondImageData
                0x000000004009fd00                MAGTEK_MSR_BuildReverseTrackRawDataWithFirstImageData
                0x00000000400a042c                MAGTEK_MSR_BuildReverseTrackRawDataWithSecondImageData
                0x00000000400a0618                MAGTEK_MSR_RetrieveForwardTrackRawDataWithFirstImageData
                0x000000004009efec                MAGTEK_MSR_NewModeReset
                0x000000004009f2ac                MAGTEK_MSR_NewModeReadTripleTrackImageData
                0x00000000400a1248                Delay_1us
                0x000000004009feec                MAGTEK_MSR_BuildTripleTrackRawDataWithSecondImageData
                0x000000004009efe4                MAGTEK_MSR_NewMode_Card_Disable
                0x000000004009eee4                MAGTEK_MSR_NewMode_Card_Read
 .text          0x00000000400a12a4      0x7b0 ././btlib/lib/printf.o
                0x00000000400a1384                OpenDebugPort
                0x00000000400a141c                Debug_Output
                0x00000000400a140c                DisableDebugOutput
                0x00000000400a1300                Rprintf
 .text          0x00000000400a1a54     0x16ac ././btlib/lib/utillib.o
                0x00000000400a2c8c                asc_to_str
                0x00000000400a23d0                asc2bcd
                0x00000000400a2d3c                RemoveLeadingSpaces
                0x00000000400a21ec                hch2hex
                0x00000000400a214c                Unsignedlong_to_HEX3
                0x00000000400a2380                hex2zch
                0x00000000400a1a54                IranianCode2BitelFarsiCode
                0x00000000400a2f68                RemoveLeadingAndTrailingSpaces
                0x00000000400a2e48                RemoveTrailingSpaces
                0x00000000400a2100                HEX2_to_UnsignedShort
                0x00000000400a1d58                IndianNo2FarsiNo
                0x00000000400a29fc                bcd_to_str
                0x00000000400a28f4                str_to_bcd
                0x00000000400a1be0                BitelFarsiCode2OlivettiPR4SLCode
                0x00000000400a265c                zasc2bcd
                0x00000000400a22b0                hex2hch
                0x00000000400a279c                bcd2zasc
                0x00000000400a2bd0                str_to_asc
                0x00000000400a20d0                UnsignedShort_to_HEX2
                0x00000000400a2324                zch2hex
                0x00000000400a2b80                asc_to_asc
                0x00000000400a2510                bcd2asc
                0x00000000400a2a5c                str_to_zbcd
                0x00000000400a1dfc                BuildBitMap
                0x00000000400a1cc8                BitelFarsiCode2BP3000Code
                0x00000000400a1fdc                BitMap_Test
                0x00000000400a2b00                zbcd_to_str
                0x00000000400a2188                HEX3_to_Unsignedlong
                0x00000000400a2cec                memcpy_null
 .text          0x00000000400a3100       0xd4 ./lib/atoflib.a(_ATOF.o)
                0x00000000400a3100                atof
 .text          0x00000000400a31d4     0x1444 ./lib/atoflib.a(__AFCNV.o)
                0x00000000400a31d4                _afcnv
 .text          0x00000000400a4618      0x4c0 ./lib/libe.a(_divdf3.o)
                0x00000000400a4618                __divdf3
 .text          0x00000000400a4ad8      0x4b8 ./lib/libe.a(_muldf3.o)
                0x00000000400a4ad8                __muldf3
 .text          0x00000000400a4f90      0x510 ./lib/libe.a(_adddf3.o)
                0x00000000400a4f90                __adddf3
                0x00000000400a5490                __subdf3
 .text          0x00000000400a54a0       0xe0 ./lib/libe.a(_fixdfsi.o)
                0x00000000400a54a0                __fixdfsi
 .text          0x00000000400a5580       0xb0 ./lib/libe.a(_floatsidf.o)
                0x00000000400a5580                __floatsidf
 .text          0x00000000400a5630       0x68 ./lib/libe.a(_nedf2.o)
                0x00000000400a5630                __nedf2
 .text          0x00000000400a5698       0x68 ./lib/libe.a(_gedf2.o)
                0x00000000400a5698                __gedf2
 .text          0x00000000400a5700       0x68 ./lib/libe.a(_ltdf2.o)
                0x00000000400a5700                __ltdf2
 .text          0x00000000400a5768       0x68 ./lib/libe.a(_ledf2.o)
                0x00000000400a5768                __ledf2
 .text          0x00000000400a57d0       0x98 ./lib/libe.a(_orderdf2.o)
                0x00000000400a57d0                __orderdf2
 .text          0x00000000400a5868      0xcf4 ./lib/emvl2.a(DES_ECB.o)
                0x00000000400a64ec                encMK10
                0x00000000400a5c68                permuted_choice
                0x00000000400a5868                stringcpy
                0x00000000400a5ce8                shift_left_regs
                0x00000000400a5adc                xor
                0x00000000400a5b58                confusion
                0x00000000400a5a50                expansion_permutation
                0x00000000400a60e4                des
                0x00000000400a5dfc                shift_right_regs
                0x00000000400a58d0                straight_permutation
                0x00000000400a5990                invert_permutation
 .text          0x00000000400a655c     0x8e6c ./lib/emvl2.a(EMV_APP.o)
                0x00000000400aa824                app_TRMprocess
                0x00000000400a9f1c                app_CVMprocess
                0x00000000400ade50                app_EncipheredPinVerifyOnLine
                0x00000000400ae45c                app_updateGenACresults
                0x00000000400a655c                app_initTrmTrxnVariables
                0x00000000400a8dc8                app_ReadApplicationData
                0x00000000400a70a4                app_BuildCandidateList
                0x00000000400adac0                app_EncipheredPinVerifyICC
                0x00000000400a76a4                app_ReadRecordPSD
                0x00000000400aeff8                app_makeDOLobjects
                0x00000000400ab7b0                app_Completion
                0x00000000400aed50                app_getTC_HashValue
                0x00000000400ad654                app_CombinedCDAproc
                0x00000000400aebec                app_checkSamePrimitiveTag
                0x00000000400aeae4                app_checkTVRwithIACorTAC
                0x00000000400ae8c4                app_checkGenACresults
                0x00000000400aece8                app_checkTrmSupportOnLine
                0x00000000400ae334                app_PlaintextPinVerifyICC
                0x00000000400ac550                app_IssuerScriptProcess
                0x00000000400a8664                app_GetProcessingOptions
                0x00000000400adf08                app_getPinTryCounter
                0x00000000400ae04c                app_getDataPinBlock
                0x00000000400ac2dc                UpdateTrmISR
                0x00000000400a98a4                app_OfflineDataAuthentication
                0x00000000400acc50                app_OffLineSDAproc
                0x00000000400ae1ec                app_checkVERIFYstatus
                0x00000000400ab594                app_CAAprocess
                0x00000000400aef48                app_searchTAGinDOL
                0x00000000400ad0ac                app_OffLineDDAproc
                0x00000000400ab690                app_OnLineProcess
                0x00000000400ac024                app_IssuerAuthentication
                0x00000000400a7fc0                app_makeApplicationList
                0x00000000400ab108                app_TAAprocess
                0x00000000400a9b10                app_ProcessRestrictions
 .text          0x00000000400af3c8     0x2418 ./lib/emvl2.a(EMV_CAT.o)
                0x00000000400b15cc                app_comparePKE
                0x00000000400b1678                app_comparePAN
                0x00000000400af3c8                SetTrmARC
                0x00000000400af450                SetTrmCAPK
                0x00000000400b0a64                retrive_ICCpinEncPK
                0x00000000400b1780                app_compareCSN
                0x00000000400af7c4                SetTrmRevocList
                0x00000000400afc88                retrive_IssuerPK
                0x00000000400af7f4                app_pgsTrmRsaKeyMake
                0x00000000400b1340                app_compareYYMMDD
                0x00000000400b1490                app_compareMMYY
                0x00000000400b10a0                app_checkYYMMDD
                0x00000000400b02cc                retrive_ICCardPK
                0x00000000400afa7c                retrive_CAPK
                0x00000000400af7dc                SetTrmExcepList
 .text          0x00000000400b17e0      0xc80 ./lib/emvl2.a(gem_TL.o)
                0x00000000400b17e0                TL_SendReceive
                0x00000000400b22fc                TL_Open
                0x00000000400b244c                TL_Close
 .text          0x00000000400b2460     0x237c ./lib/emvl2.a(r_enhanc.o)
                0x00000000400b3434                R_OpenUpdate
                0x00000000400b2de0                R_SealInit
                0x00000000400b29cc                R_SignFinal
                0x00000000400b393c                R_VerifyPEMSignature
                0x00000000400b2b74                R_VerifyUpdate
                0x00000000400b24e4                R_DigestInit
                0x00000000400b387c                R_SignBlock
                0x00000000400b2be0                R_VerifyFinal
                0x00000000400b2ff4                R_SealUpdate
                0x00000000400b2778                R_DigestFinal
                0x00000000400b37a8                R_SignPEMBlock
                0x00000000400b3610                R_OpenFinal
                0x00000000400b3a54                R_VerifyBlockSignature
                0x00000000400b31cc                R_SealFinal
                0x00000000400b2460                R_RSAEuroInfo
                0x00000000400b3b14                R_SealPEMBlock
                0x00000000400b3fc8                R_DecryptOpenPEMBlock
                0x00000000400b41f8                R_EncryptOpenPEMBlock
                0x00000000400b3c9c                R_OpenPEMBlock
                0x00000000400b2b14                R_VerifyInit
                0x00000000400b2620                R_DigestUpdate
                0x00000000400b2960                R_SignUpdate
                0x00000000400b2900                R_SignInit
                0x00000000400b3f0c                R_DigestBlock
                0x00000000400b3288                R_OpenInit
 .text          0x00000000400b47dc      0xa44 ./lib/emvl2.a(r_keygen.o)
                0x00000000400b47dc                R_GeneratePEMKeys
 .text          0x00000000400b5220      0x73c ./lib/emvl2.a(r_random.o)
                0x00000000400b53f0                R_GenerateBytes
                0x00000000400b5278                R_RandomUpdate
                0x00000000400b53cc                R_GetRandomBytesNeeded
                0x00000000400b56e8                R_RandomMix
                0x00000000400b55ac                R_RandomFinal
                0x00000000400b55e4                R_RandomCreate
                0x00000000400b5220                R_RandomInit
 .text          0x00000000400b595c      0xef0 ./lib/emvl2.a(rsa.o)
                0x00000000400b5eb8                RSAPrivateDecrypt
                0x00000000400b595c                RSAPublicEncrypt
                0x00000000400b60d0                RsaPublicKeyFunction
                0x00000000400b5d54                RSAPrivateEncrypt
                0x00000000400b62a4                RsaPrivateKeyFunction
                0x00000000400b5b30                RSAPublicDecrypt
 .text          0x00000000400b684c     0x46f8 ./lib/emvl2.a(shsc.o)
                0x00000000400b68e4                SHSUpdate
                0x00000000400b6b1c                SHSFinal
                0x00000000400b684c                SHSInit
 .text          0x00000000400baf44     0x1f10 ./lib/emvl2.a(NN.o)
                0x00000000400bbe70                NN_Mod
                0x00000000400bb350                NN_Mult
                0x00000000400bb78c                NN_Div
                0x00000000400bc9b4                NN_Digits
                0x00000000400bb064                NN_Encode
                0x00000000400bca4c                NN_Add
                0x00000000400baf44                NN_Decode
                0x00000000400bb23c                NN_Sub
                0x00000000400bc2d8                NN_ModInv
                0x00000000400bbf40                NN_ModExp
                0x00000000400bb5c8                NN_LShift
                0x00000000400bc770                NN_Bits
                0x00000000400bb16c                NN_AssignZero
                0x00000000400bc950                NN_Assign
                0x00000000400bc8e0                NN_Zero
                0x00000000400bbec8                NN_ModMult
                0x00000000400bc808                NN_Cmp
                0x00000000400bc52c                NN_Gcd
                0x00000000400bb1b8                NN_Assign2Exp
                0x00000000400bb6a8                NN_RShift
 .text          0x00000000400bce54     0x2d50 ./lib/emvl2.a(desc.o)
                0x00000000400bd0fc                DESX_CBCInit
                0x00000000400bd0d0                DES_CBCRestart
                0x00000000400be058                desfunc
                0x00000000400bd438                DESX_CBCRestart
                0x00000000400bd95c                unscrunch
                0x00000000400bd1dc                DESX_CBCUpdate
                0x00000000400bcee4                DES_CBCUpdate
                0x00000000400bd7f0                scrunch
                0x00000000400bd464                DES3_CBCInit
                0x00000000400bce54                DES_CBCInit
                0x00000000400bd590                DES3_CBCUpdate
                0x00000000400bd7c4                DES3_CBCRestart
                0x00000000400bda80                deskey
 .text          0x00000000400bfba4      0x4c0 ./lib/emvl2.a(md2c.o)
                0x00000000400bfc08                MD2Update
                0x00000000400bfd78                MD2Final
                0x00000000400bfba4                MD2Init
 .text          0x00000000400c0064     0x12c0 ./lib/emvl2.a(md4c.o)
                0x00000000400c0270                MD4Final
                0x00000000400c00c0                MD4Update
                0x00000000400c0064                MD4Init
 .text          0x00000000400c1324     0x1b80 ./lib/emvl2.a(md5c.o)
                0x00000000400c1530                MD5Final
                0x00000000400c1324                MD5Init
                0x00000000400c1380                MD5Update
 .text          0x00000000400c2ea4      0x538 ./lib/emvl2.a(prime.o)
                0x00000000400c2ea4                GeneratePrime
 .text          0x00000000400c33dc      0x634 ./lib/emvl2.a(r_encode.o)
                0x00000000400c33dc                R_EncodePEMBlock
                0x00000000400c34fc                R_DecodePEMBlock
 *(.rodata*)
 .rodata        0x00000000400c3a10      0xfd8 ././tmsdown.o
 .rodata        0x00000000400c49e8       0x34 ././timeconv.o
 *fill*         0x00000000400c4a1c        0x4 00
 .rodata        0x00000000400c4a20      0x2a8 ././scard.o
                0x00000000400c4cb4                gcTrmCAPK
                0x00000000400c4cb8                gcTrmExcepList
                0x00000000400c4cc0                gcTrmDATA
                0x00000000400c4a20                gcHex2Asc
                0x00000000400c4cbc                gcTrmRevocList
                0x00000000400c4a30                tbl_IccDataList
 .rodata        0x00000000400c4cc8       0x14 ././reftable.o
                0x00000000400c4cc8                AppStrName
 .rodata        0x00000000400c4cdc     0x2ff4 ././prtmsg.o
                0x00000000400c4cdc                PRT_MSG_TBL1
 .rodata        0x00000000400c7cd0      0x148 ././rtc.o
                0x00000000400c7d18                Month12
                0x00000000400c7cd0                DAY_STR_TBL
 .rodata        0x00000000400c7e18      0xa70 ././apppos.o
                0x00000000400c8458                ResponseCode_tbl
                0x00000000400c7e18                TrxnName_tbl
                0x00000000400c84c4                REPRINTER_COUNT_TO_LOG_COUNT_TBL
 .rodata        0x00000000400c8888        0x4 ././rs232.o
 .rodata        0x00000000400c888c      0x788 ././printer.o
                0x00000000400c888c                PrintErrorMsg
 .rodata        0x00000000400c9014      0x7ec ././main.o
 .rodata        0x00000000400c9800     0x8610 ././lcdmsg.o
                0x00000000400c9800                LCD_INITIAL_MSG_TBL
                0x00000000400c9818                LCD_LOGO_MSG_TBL
                0x00000000400c9844                LCD_MSG_TBL1
                0x00000000400d1188                LCD_MSG_TBL4
 .rodata        0x00000000400d1e10      0x1f0 ././modem.o
                0x00000000400d1e10                DISCONNECT_TBL
 .rodata        0x00000000400d2000      0x2d8 ././flash.o
 .rodata        0x00000000400d22d8     0x17d8 ././key.o
                0x00000000400d22d8                tbl_MainService
 .rodata        0x00000000400d3ab0      0xf10 ././htmlutil.o
 .rodata        0x00000000400d49c0      0x264 ././hwtest.o
                0x00000000400d49d4                SERIAL2_PORT_TBL
                0x00000000400d49c0                DOWNLOAD_PORT_TBL
 .rodata        0x00000000400d4c24       0x24 ././sfontlib.o
 .rodata        0x00000000400d4c48     0x21ec ././gsm.o
                0x00000000400d50bc                GPRS_WAVECOM_DISCONNECT_TBL
                0x00000000400d50d0                GPRS_CINTERION_DISCONNECT_TBL
                0x00000000400d4c48                tbl_ReqSequence
 .rodata        0x00000000400d6e34      0x9d4 ././btlib/bt_driver/cryptolib.o
                0x00000000400d75bc                PublicKey1Modulus
                0x00000000400d7640                PublicKey1Checksum
                0x00000000400d763c                PublicKey1Exponent
                0x00000000400d6e34                PUBLIC_KEY_SERV
                0x00000000400d7038                PRIVATE_KEY_SERV
 .rodata        0x00000000400d7808      0x774 ././btlib/bt_driver/ppdrv.o
                0x00000000400d7808                PinCmd
 *fill*         0x00000000400d7f7c        0x4 00
 .rodata        0x00000000400d7f80      0x298 ././btlib/lib/frmwri.o
 .rodata        0x00000000400d8218      0x790 ././btlib/lib/gsmlib.o
 .rodata        0x00000000400d89a8      0x404 ././btlib/lib/iconlib.o
                0x00000000400d89e8                ANTENNA_ICON_BMP
                0x00000000400d89c8                GPRS_ICON_BMP
                0x00000000400d89a8                SIM_ICON_BMP
 .rodata        0x00000000400d8dac       0x50 ././btlib/lib/printf.o
 .rodata        0x00000000400d8dfc       0x88 ././btlib/lib/utillib.o
 .rodata        0x00000000400d8e84      0x318 ./lib/atoflib.a(__AFCNV.o)
 .rodata        0x00000000400d919c      0x328 ./lib/emvl2.a(DES_ECB.o)
 *fill*         0x00000000400d94c4        0x4 00
 .rodata        0x00000000400d94c8      0x2b8 ./lib/emvl2.a(EMV_APP.o)
                0x00000000400d94c8                gbcDFnamePSE
                0x00000000400d94d8                gwcMandatoryDOL
 .rodata        0x00000000400d9780       0x40 ./lib/emvl2.a(EMV_CAT.o)
                0x00000000400d9780                TrmTCC_C
                0x00000000400d9787                TrmTCC_T
                0x00000000400d9784                TrmTCC_X
                0x00000000400d9781                TrmTCC_Z
                0x00000000400d9785                TrmTCC_A
                0x00000000400d9783                TrmTCC_H
                0x00000000400d9782                TrmTCC_O
                0x00000000400d9788                TrmTCC_U
                0x00000000400d9786                TrmTCC_F
                0x00000000400d9789                TrmTCC_R
 .rodata        0x00000000400d97c0       0xd8 ./lib/emvl2.a(gem_TL.o)
                0x00000000400d97c0                GemDirectory
 .rodata        0x00000000400d9898       0x64 ./lib/emvl2.a(r_enhanc.o)
                0x00000000400d98ac                PADDING
 .rodata        0x00000000400d98fc       0x20 ./lib/emvl2.a(r_random.o)
 .rodata        0x00000000400d991c        0x4 ./lib/emvl2.a(shsc.o)
 .rodata        0x00000000400d9920      0x8e0 ./lib/emvl2.a(desc.o)
                0x00000000400d9a00                Spbox
 .rodata        0x00000000400da200      0x100 ./lib/emvl2.a(md2c.o)
 .rodata        0x00000000400da300     0x1010 ./lib/emvl2.a(prime.o)
 .rodata        0x00000000400db310       0xc4 ./lib/emvl2.a(r_encode.o)
                0x00000000400db3d4                _etext = .
                0x00000000400db3d4                PROVIDE (etext, .)

.flash.buffer   0x0000000050000000    0x20000
                0x0000000050020000                . = (. + 0x20000)
 *fill*         0x0000000050000000    0x20000 00

.com.text       0x0000000050020000        0x0
                0x0000000050020000                __com_ram_start = .
 *(.text.ram)
                0x0000000050020000                __com_ram_end = .
                0x0000000050020000                __com_rom_start = LOADADDR (.com.text)

.lib.bss        0x0000000050020000    0x4cfa4
                0x0000000050020000                __lib_bss_start = .
 *(.lib.ram)
 .lib.ram       0x0000000050020000    0x16ac4 ././btlib/bt_driver/asmutil.o
                0x0000000050036a0b                GRAZERO
                0x00000000500369d6                STBLIMIT
                0x00000000500369d5                KEYFWDD
                0x0000000050036a1c                KSPOINT
                0x00000000500369a6                CRDEPNT3
                0x0000000050036a1f                INTSND_STS
                0x0000000050036720                INPUT_COUNT
                0x0000000050020060                DOT_BUFFER1
                0x00000000500369ee                PRT3IN_FLG
                0x00000000500369c9                BUZCTL
                0x0000000050036370                CURRENT_TIME
                0x0000000050023320                ATTB_BUFFER4
                0x00000000500365ec                hal_interrupt_handlers
                0x00000000500366f4                COM0T_IPOINT
                0x0000000050036a19                ADDISP
                0x000000005003669c                PRTFONTADDR
                0x00000000500225a0                ATTB_BUFFER1
                0x0000000050036a34                LCD_FUNC
                0x00000000500213a0                CHAR_BUFFER2
                0x0000000050036a0d                LINESPACE
                0x0000000050034854                _COMRX_TEMP
                0x00000000500361b8                CARDBIT3
                0x0000000050036994                CARDNCOUNT3
                0x00000000500369fa                PRT_COUNT
                0x000000005003676c                timer2back
                0x00000000500369eb                PRINTER_STS
                0x0000000050036548                GRADAT
                0x00000000500369e4                GRAPHICS_CTL
                0x0000000050036996                ADBATR
                0x00000000500369ff                PRINT_MODE
                0x0000000050036a38                params
                0x0000000050034820                MULTI_ORDER
                0x0000000050036394                KEY_BUFFER
                0x00000000500369e9                PRINTER_ERR
                0x00000000500369e8                PRINTER_FLG
                0x00000000500369cc                LCDBLKC
                0x00000000500369f4                LINE_FEED1
                0x0000000050036a2f                CL_ENABLED
                0x00000000500369d1                SERPNT
                0x0000000050025c20                COM0T_BUFFER
                0x000000005003698c                ADCONR
                0x00000000500369e0                DOTGRA2
                0x00000000500369b0                HAVEPRTFONT2
                0x0000000050036a21                INTSND_BIT
                0x00000000500369cd                LCDCURP
                0x00000000500369a3                CRDDPNT2
                0x0000000050036a18                SENSORONCE
                0x00000000500366bc                SAVECOUNT
                0x000000005002fc20                COM3R_BUFFER
                0x00000000500366d8                COM3T_IPOINT
                0x0000000050036694                FLASH_ADDRESS
                0x00000000500369ec                PRINTER_WRK
                0x00000000500366b0                LONGTIMER
                0x00000000500369be                DSPCFLG
                0x00000000500364f0                TELNUMBER
                0x0000000050031c20                COM3T_BUFFER
                0x0000000050036aac                RAM_BT_flash_unprotect
                0x00000000500369b8                TB05WRK
                0x00000000500369af                HAVELCDFONT2
                0x0000000050036774                ENDMARKLC
                0x0000000050036710                COM1R_COUNT
                0x0000000050036a54                hal_scs_device_number
                0x000000005003698e                NOPAPERLIMIT
                0x00000000500369c5                KEY_WPOINT
                0x0000000050036ab4                RAM_BT_flash_get_info
                0x0000000050036688                DWFONTADDR
                0x00000000500369cf                GRA_MOVE
                0x00000000500366f0                COM0R_IPOINT
                0x000000005003677c                CrcTable
                0x000000005003699e                MTFINALERR
                0x00000000500369f3                LINE_FEED
                0x00000000500369d3                GEMRXD
                0x00000000500363d8                TEXT_KEEP
                0x00000000500369ef                LFORDER
                0x0000000050036a02                ADCTL
                0x000000005002dc20                COM2T_BUFFER
                0x00000000500366c4                COM2R_IPOINT
                0x00000000500364b0                AHNTEMP
                0x00000000500369a0                CRDEPNT
                0x00000000500369f6                CR_NEXT_LFWRK
                0x00000000500366a8                LCDFONTADDR2
                0x00000000500369d2                TXCTL
                0x0000000050036a24                PRT_VS_BATT_COMP
                0x00000000500369c1                KJOHAP1
                0x0000000050036a13                BACKTIME
                0x0000000050036a26                MULTI_STEP
                0x0000000050036064                PRT_EBUFFER
                0x000000005003699a                MTTIMER
                0x0000000050036738                TIME_BASE10
                0x0000000050036460                SERBUF
                0x00000000500369c4                KEY_RPOINT
                0x0000000050036054                CHAR_FILL1
                0x00000000500369fe                STBOUTDATA
                0x0000000050036a16                TXDELAYCH
                0x00000000500369b1                PRIVKEY
                0x00000000500369ce                SCITX
                0x00000000500366b8                BUFFERSIZE
                0x0000000050036680                SAVE_SOURCE
                0x0000000050036ab8                RAM_BT_flash_init
                0x0000000050036a10                PPROTEC
                0x0000000050021ca0                CHAR_BUFFER4
                0x00000000500369db                INTPINPADPNT
                0x00000000500369f2                OR_DATA
                0x0000000050036734                STIME_BASE10
                0x00000000500369da                INTPINPADINT
                0x0000000050036a23                INTSND_DATA
                0x00000000500366a4                PRTFONTADDR2
                0x00000000500369aa                CBITPNT2
                0x00000000500369bf                CURCFLG
                0x0000000050020000                DSPBUF0
                0x0000000050036730                GRAWRK
                0x00000000500369d7                FLASHFUNCTION
                0x0000000050036a25                MULTI_EXIST
                0x0000000050036674                FLASHLIMIT
                0x0000000050036a2e                SPIIRQED
                0x000000005003670c                COM1T_IPOINT
                0x00000000500369a4                CRDEPNT2
                0x0000000050036718                COM1R_MPOINT
                0x0000000050036764                SUPADDRESS
                0x0000000050036a08                GRAOFFS
                0x00000000500369f8                PRT_RPOINT
                0x000000005003699c                CRDSETUP
                0x00000000500369b9                V0SAVE
                0x00000000500369b2                KSTEP
                0x0000000050036a09                GRASTBK
                0x00000000500369a1                CBITPNT
                0x00000000500369e3                GRAXWRK
                0x0000000050036754                MODEMTINC
                0x0000000050036728                SC_INPUTP
                0x0000000050036998                LOW_BATT_DELAY
                0x00000000500366d0                COM2R_MPOINT
                0x00000000500369ac                CRDCFLG
                0x00000000500369f0                INTTIME_INDEX
                0x0000000050033c20                SC_OUTPUT
                0x0000000050036a06                PRTPREF
                0x0000000050022a20                ATTB_BUFFER2
                0x0000000050021820                CHAR_BUFFER3
                0x00000000500362c8                CARDRDB3
                0x0000000050036118                CARDBIT2
                0x0000000050036a0c                BATTOFFS
                0x00000000500369c3                TB10WRK
                0x00000000500369c0                KJOHAP0
                0x0000000050036768                SEXISTADDRESS
                0x0000000050036a04                INTTIMEI
                0x0000000050036988                GRAYWID
                0x000000005003672c                GRA_TIME
                0x0000000050036078                CARDBIT
                0x0000000050036690                MSG_1TBL
                0x00000000500369a5                CRDDPNT3
                0x00000000500369b5                EDITMIN
                0x00000000500364e0                PWR_SAV_STS
                0x0000000050036a28                MULTI_TIMEDELAY
                0x000000005003674c                MON_TIME
                0x00000000500369d9                PRTMODE
                0x00000000500366dc                COM3R_IPOINT
                0x00000000500369e6                PRT_PAGE
                0x00000000500369c8                TB20WRK
                0x000000005003698a                HEAD_TP
                0x0000000050027c20                COM1R_BUFFER
                0x0000000050036a30                DRAM_RUNNING
                0x0000000050036a2d                SPIINITED
                0x0000000050036aa8                RAM_BT_flash_erase
                0x0000000050036a03                ADFINR
                0x00000000500369e7                PRT_LINE
                0x0000000050036a01                ADCOUNT
                0x00000000500369de                RLCDCONT
                0x0000000050036980                PORTSAVE
                0x00000000500369b7                LCDHW
                0x00000000500366e0                COM3R_COUNT
                0x0000000050036ac0                RAM_memcmp
                0x0000000050036758                MODEMTDEC
                0x00000000500369a8                CBITWRK
                0x000000005003671c                COM1T_MPOINT
                0x00000000500369d4                SYNCCKP
                0x00000000500365dc                RANDOM_NUMBER
                0x00000000500366ec                COM3T_MPOINT
                0x00000000500369c6                KEY_COUNT
                0x00000000500369dd                FLOWMOD
                0x00000000500363c8                RTC_BUFFER
                0x00000000500369b6                EDITMAX
                0x0000000050034020                MULTI_STACK
                0x0000000050020010                DSPBUF1
                0x0000000050036a15                IDLEMODE
                0x00000000500369b3                EDITCUR
                0x0000000050036a14                TBSECWRK
                0x000000005003668c                MSG_4TBL
                0x0000000050036a05                INTTIMES
                0x0000000050036704                COM0T_MPOINT
                0x0000000050036a07                GRADENS
                0x0000000050036a00                PRINTWAIT
                0x000000005003667c                GRAADDR
                0x0000000050036a11                NO_PAPER_FEED
                0x00000000500369bc                DSPPCNT
                0x0000000050036538                KDVAL
                0x00000000500369fb                HAVEDWFONT
                0x0000000050036714                COM1T_COUNT
                0x0000000050036750                APPCMD
                0x00000000500369e2                GRAXWID
                0x00000000500369d8                LCDMODE
                0x0000000050036a17                TXDELAYCH2
                0x000000005003605c                STBCNT
                0x0000000050022ea0                ATTB_BUFFER3
                0x00000000500369f1                PRTSTS
                0x00000000500369ad                HAVELCDFONT
                0x0000000050036670                INTTIME
                0x00000000500369bd                DSPLINE
                0x0000000050020f20                CHAR_BUFFER1
                0x0000000050036744                PRTHOLDTIME
                0x00000000500364d0                INTPINPADBUF
                0x00000000500369cb                BUZINDEX
                0x00000000500366a0                LCDFONTADDR
                0x0000000050036a1b                KEYOUTF
                0x00000000500366c8                COM2R_COUNT
                0x00000000500365c0                TPHDINTSAVE
                0x0000000050036724                SC_POINT
                0x0000000050036560                RAMREFTABLE
                0x00000000500366fc                COM0T_COUNT
                0x0000000050022120                CHAR_BUFFER5
                0x0000000050033e20                SC_INPUT
                0x0000000050036380                PIN_MESSAGE
                0x00000000500366b4                GET1MTIMER
                0x0000000050036a2a                MULTI_MODE
                0x0000000050036074                FLASH_BUFFER
                0x00000000500369dc                INTPINPADACT
                0x0000000050036a20                INTSND_CNT
                0x00000000500369ed                PRINTER_FNT
                0x000000005003699f                CRDDPNT
                0x0000000050036ab0                RAM_BT_flash_shutdown
                0x00000000500369a7                CBITPNT3
                0x0000000050036530                KIVAL
                0x00000000500369c7                TB05LCD_WRK
                0x00000000500369b4                EDITMOD
                0x00000000500366d4                COM2T_MPOINT
                0x000000005003673c                TIME_BASE0
                0x0000000050036a0f                ACCSTEP
                0x000000005003675c                TXDELAYTIME
                0x0000000050023c20                COM0R_BUFFER
                0x0000000050036a0e                LINESPACEW
                0x0000000050036748                PINPAD_TIME
                0x0000000050036458                RS232_STATUS
                0x0000000050036760                TXDELAYTIME2
                0x0000000050036708                COM1R_IPOINT
                0x00000000500369fd                LFCOUNT
                0x0000000050036338                CARDRDB2
                0x00000000500366cc                COM2T_COUNT
                0x0000000050029c20                COM1T_BUFFER
                0x0000000050036418                EDIT_BUFFER
                0x0000000050036a12                PPRORUN
                0x00000000500369ca                BUZWRK
                0x00000000500366c0                COM2T_IPOINT
                0x0000000050036a0a                GRASTBW
                0x00000000500369e5                PRINTING_NEED
                0x00000000500369c2                LCDOUTR
                0x00000000500369ae                HAVEPRTFONT
                0x0000000050036a31                FOMASTATUS
                0x00000000500369fc                PRT_HOLD
                0x0000000050036700                COM0R_MPOINT
                0x00000000500369e1                GRASPOS
                0x0000000050036992                CARDNCOUNT2
                0x0000000050036a1a                ICON_DIS_NEED
                0x00000000500207c0                DOT_BUFFER2
                0x0000000050036a1d                KEYSDEFINE
                0x0000000050036684                SAVE_DIST
                0x00000000500363b4                RTCCLKSAVE
                0x000000005002bc20                COM2R_BUFFER
                0x00000000500369d0                TEXT_COUNT
                0x00000000500369a9                CBITWRK3
                0x00000000500369ab                CBITWRK2
                0x00000000500369f5                LINE_FEED2
                0x000000005003699d                UNDERCRD
                0x0000000050020040                FONTBUF
                0x000000005003699b                MTCOUNT
                0x0000000050036abc                RAM_memcpy
                0x00000000500366e4                COM3T_COUNT
                0x00000000500369f9                PRT_WPOINT
                0x00000000500366ac                GRAFONTADDR
                0x00000000500366f8                COM0R_COUNT
                0x0000000050036778                ENDMARKAFTER
                0x0000000050036a29                MULTI_STACKSIZE
                0x0000000050036a1e                LOW_BATT_DISP
                0x0000000050035454                _COMTX_TEMP
                0x0000000050036258                CARDRDB
                0x0000000050034834                TASK_SEQ
                0x0000000050034830                MULTI_STACKPOINT
                0x0000000050020020                DSPBUF2
                0x0000000050036a2b                MULTIUSED
                0x00000000500366e8                COM3R_MPOINT
                0x0000000050036698                FLASH_WCOUNT
                0x0000000050020030                DSPBUF3
                0x000000005003697c                genPoly
                0x00000000500363b8                L2_BUFFER
                0x0000000050036540                KEYOUT
                0x0000000050036a22                INTSND_UNDER
                0x0000000050036990                CARDNCOUNT
                0x00000000500369ba                CURSORP
                0x00000000500369bb                DSPPBUF
                0x0000000050036a27                MULTI_PRIV
                0x00000000500369a2                CRDBCNT2
                0x00000000500369ea                PRINTER_CTL
                0x000000005003666c                PDOTLAST
                0x0000000050036770                PSEEKLIMIT
                0x0000000050036a2c                CL_INTERFACE
                0x0000000050036740                TIME_BASE1
                0x00000000500369df                DOTGRA1
                0x00000000500369f7                FORMFEED
                0x00000000500237a0                ATTB_BUFFER5
                0x0000000050036678                NEWGRAFONTADDR
 .lib.ram       0x0000000050036ac4        0x4 ././btlib/bt_driver/prtutil.o
                0x0000000050036ac4                PRT_FUNC
 *(.des_ecb.ram)
 *(.btsclib.ram)
 .btsclib.ram   0x0000000050036ac8        0xc ././btlib/lib/btsclib.o
                0x0000000050036ac8                errno
 *(.memlib.ram)
 .memlib.ram    0x0000000050036ad4        0x4 ././btlib/lib/memlib.o
 *(.beeplib.ram)
 .beeplib.ram   0x0000000050036ad8        0x1 ././btlib/lib/beeplib.o
 *(.commlib.ram)
 .commlib.ram   0x0000000050036ad9        0x1 ././btlib/lib/commlib.o
 *(.lcdlib.ram)
 *fill*         0x0000000050036ada        0x2 00
 .lcdlib.ram    0x0000000050036adc        0x4 ././btlib/lib/lcdlib.o
 *(.keylib.ram)
 .keylib.ram    0x0000000050036ae0        0x1 ././btlib/lib/keylib.o
                0x0000000050036ae0                ucKeyCnt
 *(.hsmodem.ram)
 *(.unzip.ram)
 *fill*         0x0000000050036ae1        0x3 00
 .unzip.ram     0x0000000050036ae4    0x3044c ././btlib/lib/unzip.o
 *(.tmslib.ram)
 .tmslib.ram    0x0000000050066f30     0x6074 ././btlib/lib/tmslib.o
                0x0000000050066f4a                usTMS_PGMPARAMTotalLRCData
                0x0000000050066f30                lTMS_PGMPARAMPgmUpgradeStartAddr
                0x0000000050066f38                lTMS_PGMPARAMParamTotalDataSize
                0x0000000050066f50                usTMS_PARAMTotalLRCData
                0x0000000050066f40                iTMS_ProcessStep
                0x0000000050066f48                sTMS_PGMPARAMCurrentSectorNo
                0x0000000050066f4c                sTMS_PARAMTotalSectorNo
                0x0000000050066f44                sTMS_SectorDownloadDataSize
                0x0000000050066f4e                sTMS_PARAMCurrentSectorNo
                0x0000000050066f54                sz65TMS_ErrorMsg
                0x0000000050066f3c                lTMS_PGMPARAMReferenceNo
                0x0000000050066f34                lTMS_PGMPARAMPgmTotalDataSize
                0x0000000050066f46                sTMS_PGMPARAMTotalSectorNo

.emv.bss        0x000000005006cfa4     0x5d38
 hal*(.bss COMMON .sbss .scommon)
 COMMON         0x000000005006cfa4      0x2b8 ./lib/emvlib.a(hal_scs_dev.o)
                0x000000005006cfa4                hal_scs_dev
 .bss           0x000000005006d25c        0xc ./lib/emvlib.a(hal_apm.o)
 .bss           0x000000005006d268       0x2c ./lib/emvlib.a(hal_flash.o)
 .bss           0x000000005006d294       0x20 ./lib/emvlib.a(hal_i2c.o)
 .bss           0x000000005006d2b4        0x4 ./lib/emvlib.a(hal_sys_alloc.o)
 .scommon       0x000000005006d2b8        0x8 ./lib/emvlib.a(hal_sys_alloc.o)
                0x000000005006d2b8                hal_sys_pool_head
                0x000000005006d2bc                hal_sys_pool_top
 COMMON         0x000000005006d2c0       0x20 ./lib/emvlib.a(hal_timer.o)
                0x000000005006d2c0                hal_timer_initialized
                0x000000005006d2d0                hal_timer_vsr
 .scommon       0x000000005006d2e0        0x4 ./lib/emvlib.a(hal_timer.o)
                0x000000005006d2e0                hal_timer_vsr_count
 .scommon       0x000000005006d2e4        0x1 ./lib/emvlib.a(hal_scs_vsr_t1_block.o)
                0x000000005006d2e4                ucBGTCounterReception
 emv*(.sbss .scommon .bss COMMON)
 *fill*         0x000000005006d2e5        0x3 00
 .scommon       0x000000005006d2e8        0x4 ./lib/emvlib.a(emv_init.o)
                0x000000005006d2e8                first_emv_init
 COMMON         0x000000005006d2ec       0x18 ./lib/emvlib.a(emv_init.o)
                0x000000005006d2ec                emv_handles
 .bss           0x000000005006d304     0x4030 ./lib/emvl2.a(emv_APDU.o)
                0x000000005006d306                gem_Protocol
                0x000000005006d31c                giRspBufLen
                0x000000005006d32c                giTrmDATAsize
                0x000000005006d328                pgcTrmDATA
                0x000000005006d318                pgbRspBuf
                0x000000005006d323                gbTagLength
                0x000000005006d307                gem_AUXcmmd
                0x000000005006d324                gbNthMatch
                0x000000005006d320                gwSW1SW2
                0x000000005006d310                pgbAppBuf
                0x000000005006d330                giTrmCAPKsize
                0x000000005006d30c                gem_BaudRate
                0x000000005006d322                gbTagFormat
                0x000000005006d314                giAppBufLen
                0x000000005006d308                gem_BaudFlag
                0x000000005006d325                gbGemCoR15
 COMMON         0x0000000050071334     0x1930 ./lib/emvl2.a(emv_APDU.o)
                0x0000000050071334                gbScBuf
                0x000000005007143c                gbATRdata
                0x0000000050071464                gbDestBuf
                0x0000000050071c64                gbTempBuf
                0x0000000050072464                gbSignBuf
 .scommon       0x0000000050072c64       0x10 ./lib/emvl2.a(emv_APDU.o)
                0x0000000050072c64                giScLen
                0x0000000050072c68                pgsSC_STAT
                0x0000000050072c6c                gsSC_STAT
                0x0000000050072c73                gem_RS232open
 .bss           0x0000000050072c74       0x3c ./lib/emvlib.a(emv_power_up.o)
 .scommon       0x0000000050072cb0        0x1 ./lib/emvlib.a(emv_power_up.o)
                0x0000000050072cb0                ApplicableValues
 sc_at83*(.bss COMMON .sbss .scommon)
 *fill*         0x0000000050072cb1        0x3 00
 .scommon       0x0000000050072cb4       0x10 ./lib/emvlib.a(sc_at83c26.o)
                0x0000000050072cb4                allready_powered_down
                0x0000000050072cb8                at83c26_selected_device
                0x0000000050072cbc                first_dcdcb_start
                0x0000000050072cc0                first_init
 COMMON         0x0000000050072cc4       0x18 ./lib/emvlib.a(sc_at83c26.o)
                0x0000000050072cc4                atmel_sc_voltage
 *(SORT(.sys_table*emv*))
 *(SORT(.sys_table*))
                0x0000000050072cdc                __lib_bss_end = .

.usr.sbss       0x0000000050072cdc      0x28c
                0x0000000050072cdc                __usr_bss_start = .
                0x0000000050072cdc                _fbss = .
 *(.sbss .scommon)
 .scommon       0x0000000050072cdc       0x20 ././tmsdown.o
                0x0000000050072cdc                lTMSAutoDownloadTried1SECTimer
                0x0000000050072ce0                ucAutoTMSDownloadFirstFlag
                0x0000000050072ce2                sTMSDownloadSectorNo
                0x0000000050072ce4                ucAutoTMSDownloadDateFlag
                0x0000000050072ce8                lTMSDownlaodDataPacketMaxBytes
                0x0000000050072cec                ucAutoTMSDownloadTimeFlag
                0x0000000050072cee                sTMSDownlaodDataPacketSize
                0x0000000050072cf0                ucTMSDownloadRetryCnt
                0x0000000050072cf2                sTMSDownlaodClusterNoPerSector
                0x0000000050072cf4                usTMSDownload10MSTimer
                0x0000000050072cf6                ucTMSDownloadFlag
                0x0000000050072cf8                iTMSDownInfoBlockIndex
 .scommon       0x0000000050072cfc       0x4c ././scard.o
                0x0000000050072cfc                TrmTCC
                0x0000000050072d00                TrmAcquirerID
                0x0000000050072d06                TrmType
                0x0000000050072d08                TrmCapaAdditional
                0x0000000050072d0d                gbExtPinPadFound
                0x0000000050072d10                TrmCapa
                0x0000000050072d14                gSysTimer
                0x0000000050072d18                POSSerialNr
                0x0000000050072d20                TraceNr
                0x0000000050072d24                SvcCode
                0x0000000050072d28                TrmMCC
                0x0000000050072d2c                gbLangCode
                0x0000000050072d30                TrmForceOnLine
                0x0000000050072d31                TrmL2TTAmode
                0x0000000050072d34                gbPinBlock
                0x0000000050072d3c                giPinTryCnt
                0x0000000050072d40                CardAcceptorTerminalID
 .scommon       0x0000000050072d48       0x12 ././rtc.o
                0x0000000050072d48                usColonOn1MSTimer
                0x0000000050072d4a                ucTempSec
                0x0000000050072d4b                ucCheckColonTimerFlag
                0x0000000050072d4c                ucDateTimeRefreshFlag
                0x0000000050072d4e                usLCDBackLightOn10MSTimer
                0x0000000050072d50                RealTime
                0x0000000050072d58                ucLCDBacklightOnFlag
                0x0000000050072d59                ucTempMin
 *fill*         0x0000000050072d5a        0x6 00
 .scommon       0x0000000050072d60       0x72 ././apppos.o
                0x0000000050072d60                usTrxnLogIndex
                0x0000000050072d62                usMsgType
                0x0000000050072d64                ucBlackListExistFlag
                0x0000000050072d65                ucBuyTrxnType
                0x0000000050072d68                iMaxDBCtrlIndex
                0x0000000050072d6c                lMaxLogAddr
                0x0000000050072d70                usBackupMsgType
                0x0000000050072d72                usEodTrxnCount
                0x0000000050072d74                usBackupTransType
                0x0000000050072d78                dBuyAmount
                0x0000000050072d80                pstfSavingTrxnLog
                0x0000000050072d84                lMinLogAddr
                0x0000000050072d88                pstfLastTrxnLog
                0x0000000050072d8c                ucReversalFlag
                0x0000000050072d90                iStartDBCtrlIndex
                0x0000000050072d94                ucSIMChargeOperatorCode
                0x0000000050072d96                usTransType
                0x0000000050072d98                dDebitBuyAmount
                0x0000000050072da0                ulBackupPCode
                0x0000000050072da8                dCreditBuyAmout
                0x0000000050072db0                pstfTempTrxnLog
                0x0000000050072db8                dRefundAmout
                0x0000000050072dc0                ucMultiMerchantSelectedNo
                0x0000000050072dc1                ucPINInputAndReconnectFlag
                0x0000000050072dc2                ucReversalRetryCnt
                0x0000000050072dc4                pstfFirstTrxnLog
                0x0000000050072dc8                ulPCode
                0x0000000050072dcc                ucReversalRetryTimePerCnt
                0x0000000050072dce                usTrxnTotalCount
                0x0000000050072dd0                usResponseCode
 *fill*         0x0000000050072dd2        0x2 00
 .scommon       0x0000000050072dd4       0x10 ././rs232.o
                0x0000000050072dd4                iRS232RxCnt
                0x0000000050072dd8                usRS232TaskStep
                0x0000000050072dda                usRS23210MSMaxTimeout
                0x0000000050072ddc                usRS23210MSTimer
                0x0000000050072de0                iRS232RxSize
 .scommon       0x0000000050072de4        0xd ././printer.o
                0x0000000050072de4                usPrintingFinish10MSTimer
                0x0000000050072de6                ucPrintError
                0x0000000050072de8                usPrintAutoSecondReceipt10MSTimer
                0x0000000050072dea                usPrint10MSTimer
                0x0000000050072dec                ucPRTDensity
                0x0000000050072ded                ucPrintReceiptNo
                0x0000000050072dee                usPrintStep
                0x0000000050072df0                ucPrintPrePrintingAreaFlag
 *fill*         0x0000000050072df1        0x3 00
 .scommon       0x0000000050072df4       0x16 ././main.o
                0x0000000050072df4                sz5LCDDisplayProgramVersion
                0x0000000050072dfc                sz6BIOSVersion
                0x0000000050072e04                iModelName
                0x0000000050072e08                ucLangFlag
                0x0000000050072e09                ucCurrencyExp
 *fill*         0x0000000050072e0a        0x2 00
 .scommon       0x0000000050072e0c       0x10 ././modem.o
                0x0000000050072e0c                ucReqDataReadyFlag
                0x0000000050072e0d                ucDisconnectCnt
                0x0000000050072e0e                ucReqDataTxFlag
                0x0000000050072e10                iRxSize
                0x0000000050072e14                iRxCnt
                0x0000000050072e18                iTxSize
 .scommon       0x0000000050072e1c       0x28 ././flash.o
                0x0000000050072e1c                pstHotCard
                0x0000000050072e20                iFlashTrxnLogSectorNo
                0x0000000050072e24                pstBinTable
                0x0000000050072e28                pstAppList
                0x0000000050072e2c                lFlashSectorSize
                0x0000000050072e30                pstFuncList
                0x0000000050072e34                pstMasterKey
                0x0000000050072e38                stpFlashPOSSetupInfo
                0x0000000050072e3c                pstParams
                0x0000000050072e40                iFlashMemorySize
 .scommon       0x0000000050072e44       0x1c ././key.o
                0x0000000050072e44                usMainStatus
                0x0000000050072e46                cMaxInputCnt
                0x0000000050072e48                pusServiceAddr
                0x0000000050072e4c                cXPos
                0x0000000050072e4e                usReversalPrint10MSTimer
                0x0000000050072e50                usAutoReversal10MSTimer
                0x0000000050072e52                sVirtualKey
                0x0000000050072e54                sTempKey
                0x0000000050072e58                lCallHome1SECTimer
                0x0000000050072e5c                cYPos
                0x0000000050072e5e                usAutoInitial10MSTimer
 .scommon       0x0000000050072e60        0xc ././htmlutil.o
                0x0000000050072e60                giTLVBufTotalLen
                0x0000000050072e64                giTLVBufLen
                0x0000000050072e68                pgbTLVBuf
 .scommon       0x0000000050072e6c        0xc ././hwtest.o
                0x0000000050072e6c                iModemTestTotalCnt
                0x0000000050072e70                ucModemTestFlag
                0x0000000050072e74                iModemTestOKCnt
 .scommon       0x0000000050072e78       0x44 ././gsm.o
                0x0000000050072e78                ucGprsGsmModel
                0x0000000050072e79                ucGprsCheckDisconnectCnt
                0x0000000050072e7a                ucGprsCmdRetryCnt
                0x0000000050072e7b                ucGprsModuleOkFlag
                0x0000000050072e7c                ucGprsPowerOffFlag
                0x0000000050072e7d                ucGprsBerValue
                0x0000000050072e7e                ucGprsRssiRetryCnt
                0x0000000050072e80                giTransactionType
                0x0000000050072e84                ucGprsSIMStatus
                0x0000000050072e85                ucGprsDLESetFlag
                0x0000000050072e86                ucGprsRegistrationStatus
                0x0000000050072e88                GPRS_bearer_Retry
                0x0000000050072e8c                ucGprsBearerOpenedFlag
                0x0000000050072e8e                usWipCmdRetryCnt
                0x0000000050072e90                pusReqSequence
                0x0000000050072e94                ucGprsRegistrationRetryCnt
                0x0000000050072e96                usGprs10MSMaxTimeout
                0x0000000050072e98                giRequestType
                0x0000000050072e9c                ucGprsMaxConnectCnt
                0x0000000050072e9d                ucGprsRssiValue
                0x0000000050072ea0                lGprsTest1SecCheckTimer
                0x0000000050072ea4                ucGprsPowerOnStatus
                0x0000000050072ea5                ucGprsNetworkConnectionStatus
                0x0000000050072ea6                usGprsTaskStep
                0x0000000050072ea8                ucGprsConnectCnt
                0x0000000050072eac                lGprsTest1SecStartTimer
                0x0000000050072eb0                ucGprsSIMCheckedFlag
                0x0000000050072eb4                giRespContentLength
                0x0000000050072eb8                ucGsmNetworkRegistrationMode
                0x0000000050072eba                usGprs10MSTimer
 .scommon       0x0000000050072ebc       0x11 ././msr.o
                0x0000000050072ebc                sz5ExpiryDate
                0x0000000050072ec4                isDetectCard
                0x0000000050072ec8                sz4CardServiceCode
                0x0000000050072ecc                ucMSRTrack
 *fill*         0x0000000050072ecd        0x3 00
 .scommon       0x0000000050072ed0        0xc ././btlib/bt_driver/cryptolib.o
                0x0000000050072ed0                AESkeyIntialized
                0x0000000050072ed4                _AHN_KeyLoad
                0x0000000050072ed8                iTrmModelNo
 .scommon       0x0000000050072edc       0x20 ././btlib/bt_driver/ppdrv.o
                0x0000000050072edc                PEDT_IPOINT
                0x0000000050072ee0                PEDR_MPOINT
                0x0000000050072ee4                PEDR_IPOINT
                0x0000000050072ee8                PEDR_COUNT
                0x0000000050072eec                PEDT_COUNT
                0x0000000050072ef0                pinWait
                0x0000000050072ef4                gbSMID
                0x0000000050072ef8                PEDT_MPOINT
 .scommon       0x0000000050072efc        0xb ././btlib/lib/magtek_msr.o
                0x0000000050072efc                usMagtekMSRPreamble
                0x0000000050072efe                ucMagtekMSRTrackForwardFlag
                0x0000000050072eff                ucMagtekMSRTrack3ErrorFlag
                0x0000000050072f00                uiMagtekMSRBufferReadyCount
                0x0000000050072f04                ucMagtekMSRTrackRawDataLen
                0x0000000050072f05                ucMagtekMSRTrack1ErrorFlag
                0x0000000050072f06                ucMagtekMSRTrack2ErrorFlag
 *fill*         0x0000000050072f07        0x1 00
 .scommon       0x0000000050072f08        0x4 ./lib/atoflib.a(__AFCNV.o)
                0x0000000050072f08                str_p
 .scommon       0x0000000050072f0c        0x8 ./lib/emvlib.a(at83c26_lib.o)
                0x0000000050072f0c                at83c26_counter
                0x0000000050072f10                uiOperationPending
 .scommon       0x0000000050072f14       0x2c ./lib/emvl2.a(EMV_APP.o)
                0x0000000050072f14                pgbPOSEntryMode
                0x0000000050072f18                pgsTrmTVR
                0x0000000050072f1c                gbDDFstackHead
                0x0000000050072f20                pgsTrmCVMR
                0x0000000050072f24                pgsTrmCAPA
                0x0000000050072f28                gbDDFstackTail
                0x0000000050072f2c                pgsTrmTSI
                0x0000000050072f30                pgsTrmISR
                0x0000000050072f34                pgsTrmACAP
                0x0000000050072f38                pgsIccAIP
                0x0000000050072f3c                giTrmISR
 .scommon       0x0000000050072f40        0x8 ./lib/emvl2.a(EMV_CAT.o)
                0x0000000050072f40                pgbTrmRevocList
                0x0000000050072f44                pgbTrmExcepList
 .scommon       0x0000000050072f48        0xa ./lib/emvl2.a(gem_TL.o)
                0x0000000050072f48                GemSlotOpen
                0x0000000050072f4c                GemSlotNo
                0x0000000050072f50                GemMode
                0x0000000050072f51                GemModeAUX
 *fill*         0x0000000050072f52        0x2 00
 .scommon       0x0000000050072f54       0x14 ./lib/emvl2.a(shsc.o)
                0x0000000050072f54                D
                0x0000000050072f58                A
                0x0000000050072f5c                B
                0x0000000050072f60                C
                0x0000000050072f64                E

.usr.bss        0x0000000050072f68    0x510a8
 *(.bss COMMON)
 COMMON         0x0000000050072f68      0x100 ././tmsdown.o
                0x0000000050072f68                tTMSDownloadInfo
 .bss           0x0000000050073068       0x2c ././scard.o
                0x0000000050073078                gbCurrencyExp
                0x0000000050073090                gbKeyCnt
                0x0000000050073079                gbSignatureFlag
                0x0000000050073074                gwTrmARC
                0x000000005007307d                gbReferralFlag
                0x000000005007308a                gwModemTOut
                0x000000005007307e                gbSaveTrxnRec
                0x0000000050073081                gbTrxnType
                0x000000005007308c                gtwCRC
                0x0000000050073083                gbPin_TypeDone
                0x0000000050073088                gwModemWait
                0x0000000050073068                gbRS232TaskStep
                0x0000000050073069                gbEmvScTaskStep
                0x000000005007307f                gbValidateBit
                0x0000000050073072                gwResponseCode
                0x000000005007307b                gbRefundFlag
                0x0000000050073070                ghResponseCode
                0x0000000050073084                gdwAmount
                0x000000005007307c                gbOnLineFlag
                0x000000005007308e                gtwLRC
                0x0000000050073091                gbKeyVal
                0x0000000050073076                gwCurrencyCode
                0x0000000050073082                gbPin_Type
                0x0000000050073080                gbAmountIN
                0x000000005007306c                giTrxnNOnFlag
                0x000000005007307a                gbReversalFlag
 COMMON         0x0000000050073094     0x1200 ././scard.o
                0x0000000050073094                TxDBUF
                0x0000000050073894                CardNo2
                0x00000000500738c8                CardNo1
                0x0000000050073938                CardAcceptorMerchantID
                0x0000000050073948                gsXRec
                0x0000000050073a48                Total_Amount
                0x0000000050073a58                SelectedAID
                0x0000000050073a6c                RxDBUF
                0x000000005007426c                CardHolderName
                0x0000000050074280                gbTmpKeyBuf
 COMMON         0x0000000050074294     0x5093 ././apppos.o
                0x0000000050074294                sz17EncypritedCardPIN
                0x00000000500742a8                st_TrxnReqData
                0x0000000050074eb0                F048aL3_sz1003BillPaymentData1
                0x000000005007529c                sz29OrganizationAccount
                0x00000000500752bc                sz9BackupMerchantID
                0x00000000500752cc                c9ActiveTrxnMenuType
                0x00000000500752d8                sz9BackupTerminalID
                0x00000000500752e4                sz13CardPIN
                0x00000000500752f4                sz19BillID
                0x0000000050075308                st_ErrRespData
                0x0000000050075344                sz13Amount
                0x0000000050075354                st_TrxnRespData
                0x0000000050075f70                st_ReversalTrxnReqData
                0x0000000050076b78                st_TrxnLogDB
                0x0000000050078ab8                sz12PhoneNo
                0x0000000050078ac4                st_TrxnLog
                0x0000000050078e8c                sz19PaymentID
                0x0000000050078ea0                sz17ActiveTrxnMenuMsg
                0x0000000050078f3c                F121aL3_sz1003BillPaymentData2
 *fill*         0x0000000050079327        0x1 00
 COMMON         0x0000000050079328     0x2000 ././rs232.o
                0x0000000050079328                ucRS232RxBuf
 COMMON         0x000000005007b328       0x6d ././main.o
                0x000000005007b328                sz9POSSetupInfoDate
                0x000000005007b334                sz17ProgramDate
                0x000000005007b348                sz17HWInfo
                0x000000005007b35c                sz17TMSSWVersion
                0x000000005007b370                sz17ProgramVersion
                0x000000005007b384                sz17TRMModelName
 *fill*         0x000000005007b395        0x3 00
 COMMON         0x000000005007b398     0xc000 ././modem.o
                0x000000005007b398                ucTxBuf
                0x000000005007d398                ucRxBuf
                0x000000005007f398                ucTrxnTxBuf
                0x0000000050081398                ucTrxnRxBuf
                0x0000000050083398                ucTxTempBuf
                0x0000000050085398                ucRxTempBuf
 .bss           0x0000000050087398        0x6 ././flash.o
                0x0000000050087398                usAppListCnt
                0x000000005008739a                usBinTableCnt
                0x000000005008739c                usHotCardsCnt
 *fill*         0x000000005008739e        0x2 00
 COMMON         0x00000000500873a0    0x33e6c ././flash.o
                0x00000000500873a0                tPOSUtilBuf
                0x00000000500893a0                stEmvApp
                0x0000000050089494                tPOSUtilInfo
                0x00000000500894ac                stEmvRevokeCapk
                0x00000000500894b8                stSessionKey
                0x00000000500896b8                stEmvCapk
                0x000000005008980c                stBinTable
                0x000000005008a80c                stParams
                0x000000005008b00c                stAppList
                0x000000005008ec0c                stMasterKey
                0x000000005008ee0c                stHotCard
                0x0000000050098e0c                st_POSSetupInfo
                0x000000005009ae0c                FlashWriteBuf
                0x00000000500bae0c                stEftParams
 COMMON         0x00000000500bb20c       0xfd ././key.o
                0x00000000500bb20c                c65TempKeyBuf
                0x00000000500bb250                c65TempBuf
                0x00000000500bb294                c65CommaAndDotString
                0x00000000500bb2d8                st_EndOfDay
                0x00000000500bb2f8                sz17TrxnTitle
 *fill*         0x00000000500bb309        0x3 00
 .bss           0x00000000500bb30c       0x10 ././htmlutil.o
                0x00000000500bb318                SP
                0x00000000500bb30e                giTmpCount
                0x00000000500bb30c                iStartAt
                0x00000000500bb314                gIndex
                0x00000000500bb310                giApplIdx
 COMMON         0x00000000500bb31c      0x440 ././htmlutil.o
                0x00000000500bb31c                TagStack
                0x00000000500bb51c                tagName
                0x00000000500bb55c                tagData
 .bss           0x00000000500bb75c     0x2350 ././sfontlib.o
 COMMON         0x00000000500bdaac      0x880 ././sfontlib.o
                0x00000000500bdaac                EXTFONTBUF
                0x00000000500bdb2c                LcdDispBuf
                0x00000000500bdf2c                GraphicBuf
 .bss           0x00000000500be32c        0x4 ././gsm.o
                0x00000000500be32c                iKeyCnt
 COMMON         0x00000000500be330     0x2814 ././gsm.o
                0x00000000500be330                sz18GsmOperator
                0x00000000500be344                ucHtmlHeader
                0x00000000500beb44                gbTmpRespBuf
 COMMON         0x00000000500c0b44      0x111 ././msr.o
                0x00000000500c0b44                sz20PAN
                0x00000000500c0b58                sz38Track2Data
                0x00000000500c0b80                sz77Track1Data
                0x00000000500c0bd0                sz27CardholderName
                0x00000000500c0bec                sz105Track3Data
 *fill*         0x00000000500c0c55        0x3 00
 .bss           0x00000000500c0c58      0x238 ././btlib/bt_driver/cryptolib.o
 COMMON         0x00000000500c0e90     0x17ec ././btlib/bt_driver/cryptolib.o
                0x00000000500c0e90                PRIVATE_KEY2
                0x00000000500c1414                tBuf1
                0x00000000500c1494                PUBLIC_KEY2
                0x00000000500c1698                tCipherText
                0x00000000500c1718                SvrPlainText
                0x00000000500c1818                tBuf2
                0x00000000500c1898                tDataBuf
                0x00000000500c2098                TrmRxDataBuf
                0x00000000500c2198                gsSHSconText
                0x00000000500c21f8                tPlainText
                0x00000000500c2278                TrmCipherText
                0x00000000500c2378                SvrCipherText
                0x00000000500c2478                PUBLIC_KEY1
 .bss           0x00000000500c267c      0x460 ././btlib/bt_driver/ppdrv.o
                0x00000000500c268c                iDispCmd
 COMMON         0x00000000500c2adc      0x3a4 ././btlib/bt_driver/ppdrv.o
                0x00000000500c2adc                PEDT_BUFFER
                0x00000000500c2bdc                PEDR_BUFFER
                0x00000000500c2cdc                PinData
 .bss           0x00000000500c2e80       0x88 ././btlib/lib/frmwri.o
 .bss           0x00000000500c2f08      0x400 ././btlib/lib/iconlib.o
 COMMON         0x00000000500c3308      0x173 ././btlib/lib/magtek_msr.o
                0x00000000500c3308                ucMagtekMSRNewMode3TrackImageData
                0x00000000500c3410                cMagtekMSRTrackRawData
 .bss           0x00000000500c347b        0x2 ././btlib/lib/printf.o
 *fill*         0x00000000500c347d        0x3 00
 .bss           0x00000000500c3480        0x4 ./lib/atoflib.a(_ATOF.o)
 COMMON         0x00000000500c3484        0xc ./lib/emvlib.a(at83c26_lib.o)
                0x00000000500c3484                ucBufferRx
 COMMON         0x00000000500c3490       0x40 ./lib/emvl2.a(DES_ECB.o)
                0x00000000500c3490                tmpEcbBlock
 .bss           0x00000000500c34d0       0x18 ./lib/emvl2.a(EMV_APP.o)
                0x00000000500c34d3                gbCryptoInfoDat
                0x00000000500c34d0                gbIccAIDno
                0x00000000500c34d4                gwOffLineSDAstart
                0x00000000500c34e4                giISRlen
                0x00000000500c34e0                pgbDir
                0x00000000500c34d1                gbIccAFLno
                0x00000000500c34d8                gwOffLineSDAbytes
                0x00000000500c34dc                gu32GenACcmd
                0x00000000500c34d2                gbCDArequested
 COMMON         0x00000000500c34e8       0x5b ./lib/emvl2.a(EMV_APP.o)
                0x00000000500c34e8                gsTrmTAC
                0x00000000500c34f8                emvref
                0x00000000500c3534                gsIsuIAC
 *fill*         0x00000000500c3543        0x1 00
 .bss           0x00000000500c3544        0xc ./lib/emvl2.a(EMV_CAT.o)
                0x00000000500c3544                pgsTrmRsaKey
 COMMON         0x00000000500c3550      0xabc ./lib/emvl2.a(EMV_CAT.o)
                0x00000000500c3550                gsICCardPK
                0x00000000500c3754                gsEmvCA_PK
                0x00000000500c3958                gsTrmRsaKey
                0x00000000500c3e08                gsIssuerPK
 .bss           0x00000000500c400c        0x4 ./lib/emvl2.a(r_random.o)
                0x00000000500c4010                __usr_bss_end = .
                0x00000000500c4010                __usr_end = .

.ram.heap       0x00000000500c4010    0x20000
                0x00000000500c4010                __ram_heap_start = .
                0x00000000500e4010                . = (. + 0x20000)
 *fill*         0x00000000500c4010    0x20000 00
                0x00000000500e4010                __ram_heap_end = .

.usr.css.security
                0x00000000501f9800       0x40
 *(.css.security)
 .css.security  0x00000000501f9800       0x30 ././btlib/bt_driver/ppdrv.o
                0x00000000501f9840                . = ALIGN (0x20)
 *fill*         0x00000000501f9830       0x10 00

.usr.data       0x00000000501f9840      0x32c load address 0x00000000400db3e0
                0x00000000501f9840                __usr_ram_start = .
                0x00000000501f9840                _fdata = .
 *(.data .sdata)
 .data          0x00000000501f9840      0x30c ././htmlutil.o
                0x00000000501f9b20                sHttpReqHeader
                0x00000000501f9b48                MasterKeyTID
                0x00000000501f9a70                sTAMSFunctionList
                0x00000000501f9ae4                sBankFunctionList
                0x00000000501f9840                gusApplId
                0x00000000501f9aa0                sVoucherFunctionList
                0x00000000501f9844                NIBSS_TAG
 .data          0x00000000501f9b4c        0x4 ././gsm.o
 .data          0x00000000501f9b50        0x8 ././btlib/bt_driver/ppdrv.o
                0x00000000501f9b54                dbgsts
 .data          0x00000000501f9b58        0x4 ./lib/atoflib.a(__AFCNV.o)
                0x00000000501f9b58                dec_point_char
 .data          0x00000000501f9b5c        0x4 ./lib/emvlib.a(at83c26_lib.o)
                0x00000000501f9b5c                uiNbBytes
 .data          0x00000000501f9b60        0xc ./lib/emvl2.a(EMV_CAT.o)
                0x00000000501f9b66                TrmARC_Z2
                0x00000000501f9b62                TrmARC_Z1
                0x00000000501f9b60                TrmARC_Y1
                0x00000000501f9b6a                TrmARC_Z3
                0x00000000501f9b68                TrmARC_Y3
                0x00000000501f9b64                TrmARC_Y2
 *(.lit4 .lit8)
 *(SORT(.dev*))
                0x00000000501f9b6c                _edata = <code 339> (.)
                0x00000000501f9b6c                __usr_ram_end = .
                0x00000000400db3e0                __usr_rom_start = LOADADDR (.usr.data)
                0x00000000501f9b6c                PROVIDE (edata, .)
                0x00000000a0008000                __com_bss_start = 0xa0008000

.rel.dyn

.com.bss        0x00000000a0008000        0x0
 *(.bss.usb)
                0x00000000a0008000                . = ALIGN (0x20)
                0x00000000a0008000                __com_bss_end = .
                0x0000000080008000                . = (__com_bss_end & 0xdfffffff)

.hal.heap       0x00000000a001c500     0x2000
                0x00000000a001c500                __hal_heap_start = .
                0x00000000a001e500                . = (. + 0x2000)
 *fill*         0x00000000a001c500     0x2000 00
                0x00000000a001e500                __hal_heap_end = .
START GROUP
LOAD ./lib/atoflib.a
LOAD ./lib/libc.a
LOAD ./lib/libe.a
LOAD ./lib/emvlib.a
LOAD ./lib/usblib.a
LOAD ./lib/emvl2.a
LOAD ././tmsdown.o
LOAD ././timeconv.o
LOAD ././scard.o
LOAD ././reftable.o
LOAD ././prtmsg.o
LOAD ././rtc.o
LOAD ././apppos.o
LOAD ././rs232.o
LOAD ././printer.o
LOAD ././main.o
LOAD ././lcdmsg.o
LOAD ././modem.o
LOAD ././flash.o
LOAD ././key.o
LOAD ././htmlutil.o
LOAD ././hwtest.o
LOAD ././sfontlib.o
LOAD ././gsm.o
LOAD ././msr.o
LOAD ././btlib/bt_driver/cstartup.o
LOAD ././btlib/bt_driver/btutils.o
LOAD ././btlib/bt_driver/asmutil.o
LOAD ././btlib/bt_driver/prtutil.o
LOAD ././btlib/bt_driver/prtfont.o
LOAD ././btlib/bt_driver/cryptolib.o
LOAD ././btlib/bt_driver/ppdrv.o
LOAD ././btlib/lib/beeplib.o
LOAD ././btlib/lib/btsclib.o
LOAD ././btlib/lib/commlib.o
LOAD ././btlib/lib/country.o
LOAD ././btlib/lib/frmwri.o
LOAD ././btlib/lib/gsmlib.o
LOAD ././btlib/lib/iconlib.o
LOAD ././btlib/lib/keylib.o
LOAD ././btlib/lib/lcdlib.o
LOAD ././btlib/lib/libc.o
LOAD ././btlib/lib/magtek_msr.o
LOAD ././btlib/lib/memlib.o
LOAD ././btlib/lib/msrlib.o
LOAD ././btlib/lib/printf.o
LOAD ././btlib/lib/prtbitellogo.o
LOAD ././btlib/lib/prtpmlogo.o
LOAD ././btlib/lib/rtclib.o
LOAD ././btlib/lib/sysinfo.o
LOAD ././btlib/lib/timerlib.o
LOAD ././btlib/lib/tmslib.o
LOAD ././btlib/lib/unzip.o
LOAD ././btlib/lib/utillib.o
END GROUP
OUTPUT(./Full_Application_release.elf elf32-tradlittlemips)

.reginfo        0x0000000000000000       0x18
 .reginfo       0x0000000000000000       0x18 ././tmsdown.o

.pdr            0x0000000000000000     0xa380
 .pdr           0x0000000000000000      0x260 ././tmsdown.o
 .pdr           0x0000000000000260       0x80 ././timeconv.o
 .pdr           0x00000000000002e0      0x380 ././scard.o
 .pdr           0x0000000000000660      0x120 ././rtc.o
 .pdr           0x0000000000000780      0x1e0 ././apppos.o
 .pdr           0x0000000000000960       0x60 ././rs232.o
 .pdr           0x00000000000009c0      0x560 ././printer.o
 .pdr           0x0000000000000f20       0x40 ././main.o
 .pdr           0x0000000000000f60      0x160 ././modem.o
 .pdr           0x00000000000010c0      0x1a0 ././flash.o
 .pdr           0x0000000000001260      0x380 ././key.o
 .pdr           0x00000000000015e0      0x320 ././htmlutil.o
 .pdr           0x0000000000001900      0x140 ././hwtest.o
 .pdr           0x0000000000001a40      0x460 ././sfontlib.o
 .pdr           0x0000000000001ea0      0x220 ././gsm.o
 .pdr           0x00000000000020c0       0xa0 ././msr.o
 .pdr           0x0000000000002160       0xa0 ././btlib/bt_driver/cstartup.o
 .pdr           0x0000000000002200      0xe80 ././btlib/bt_driver/btutils.o
 .pdr           0x0000000000003080     0x1740 ././btlib/bt_driver/asmutil.o
 .pdr           0x00000000000047c0      0x380 ././btlib/bt_driver/prtutil.o
 .pdr           0x0000000000004b40      0x380 ././btlib/bt_driver/cryptolib.o
 .pdr           0x0000000000004ec0      0x400 ././btlib/bt_driver/ppdrv.o
 .pdr           0x00000000000052c0       0xa0 ././btlib/lib/beeplib.o
 .pdr           0x0000000000005360      0x520 ././btlib/lib/btsclib.o
 .pdr           0x0000000000005880      0x100 ././btlib/lib/commlib.o
 .pdr           0x0000000000005980       0x40 ././btlib/lib/frmwri.o
 .pdr           0x00000000000059c0       0x40 ././btlib/lib/gsmlib.o
 .pdr           0x0000000000005a00       0xa0 ././btlib/lib/iconlib.o
 .pdr           0x0000000000005aa0      0x180 ././btlib/lib/keylib.o
 .pdr           0x0000000000005c20      0x1a0 ././btlib/lib/lcdlib.o
 .pdr           0x0000000000005dc0       0x60 ././btlib/lib/libc.o
 .pdr           0x0000000000005e20      0x2a0 ././btlib/lib/magtek_msr.o
 .pdr           0x00000000000060c0       0xa0 ././btlib/lib/memlib.o
 .pdr           0x0000000000006160      0x120 ././btlib/lib/msrlib.o
 .pdr           0x0000000000006280       0xa0 ././btlib/lib/printf.o
 .pdr           0x0000000000006320      0x140 ././btlib/lib/rtclib.o
 .pdr           0x0000000000006460       0x40 ././btlib/lib/sysinfo.o
 .pdr           0x00000000000064a0      0x100 ././btlib/lib/timerlib.o
 .pdr           0x00000000000065a0      0x1c0 ././btlib/lib/tmslib.o
 .pdr           0x0000000000006760      0x2a0 ././btlib/lib/unzip.o
 .pdr           0x0000000000006a00      0x3a0 ././btlib/lib/utillib.o
 .pdr           0x0000000000006da0       0x60 ./lib/atoflib.a(_ATOF.o)
 .pdr           0x0000000000006e00      0x160 ./lib/atoflib.a(__AFCNV.o)
 .pdr           0x0000000000006f60       0x20 ./lib/libe.a(_divdf3.o)
 .pdr           0x0000000000006f80       0x20 ./lib/libe.a(_muldf3.o)
 .pdr           0x0000000000006fa0       0x40 ./lib/libe.a(_adddf3.o)
 .pdr           0x0000000000006fe0       0x20 ./lib/libe.a(_fixdfsi.o)
 .pdr           0x0000000000007000       0x20 ./lib/libe.a(_floatsidf.o)
 .pdr           0x0000000000007020       0x20 ./lib/libe.a(_nedf2.o)
 .pdr           0x0000000000007040       0x20 ./lib/libe.a(_gedf2.o)
 .pdr           0x0000000000007060       0x20 ./lib/libe.a(_ltdf2.o)
 .pdr           0x0000000000007080       0x20 ./lib/libe.a(_ledf2.o)
 .pdr           0x00000000000070a0       0x20 ./lib/libe.a(_orderdf2.o)
 .pdr           0x00000000000070c0      0x160 ./lib/emvlib.a(sc_at83c26.o)
 .pdr           0x0000000000007220       0x20 ./lib/emvlib.a(emv_init.o)
 .pdr           0x0000000000007240       0x80 ./lib/emvlib.a(emv_timer.o)
 .pdr           0x00000000000072c0       0x40 ./lib/emvlib.a(hal_scs_cancel.o)
 .pdr           0x0000000000007300      0x1a0 ./lib/emvlib.a(hal_scs_dev.o)
 .pdr           0x00000000000074a0       0x20 ./lib/emvlib.a(hal_scs_init.o)
 .pdr           0x00000000000074c0       0x20 ./lib/emvlib.a(hal_scs_ioctl.o)
 .pdr           0x00000000000074e0       0xa0 ./lib/emvlib.a(hal_scs_isr.o)
 .pdr           0x0000000000007580       0x20 ./lib/emvlib.a(hal_scs_set_config.o)
 .pdr           0x00000000000075a0      0x220 ./lib/emvlib.a(hal_apm.o)
 .pdr           0x00000000000077c0      0x380 ./lib/emvlib.a(hal_flash.o)
 .pdr           0x0000000000007b40      0x1a0 ./lib/emvlib.a(hal_i2c.o)
 .pdr           0x0000000000007ce0       0xa0 ./lib/emvlib.a(hal_intr.o)
 .pdr           0x0000000000007d80       0x60 ./lib/emvlib.a(hal_libc.o)
 .pdr           0x0000000000007de0       0xa0 ./lib/emvlib.a(hal_sys_alloc.o)
 .pdr           0x0000000000007e80      0x160 ./lib/emvlib.a(hal_timer.o)
 .pdr           0x0000000000007fe0       0x40 ./lib/emvlib.a(hal_apm_clock.o)
 .pdr           0x0000000000008020       0x40 ./lib/emvlib.a(hal_intr_mask.o)
 .pdr           0x0000000000008060      0x1e0 ./lib/emvlib.a(at83c26_api.o)
 .pdr           0x0000000000008240       0x60 ./lib/emvlib.a(at83c26_lib.o)
 .pdr           0x00000000000082a0       0x60 ./lib/emvlib.a(hal_scs_analog.o)
 .pdr           0x0000000000008300       0x20 ./lib/emvlib.a(hal_scs_clock.o)
 .pdr           0x0000000000008320       0xe0 ./lib/emvlib.a(hal_scs_counter.o)
 .pdr           0x0000000000008400      0x1a0 ./lib/emvl2.a(DES_ECB.o)
 .pdr           0x00000000000085a0      0x440 ./lib/emvl2.a(EMV_APP.o)
 .pdr           0x00000000000089e0      0x1e0 ./lib/emvl2.a(EMV_CAT.o)
 .pdr           0x0000000000008bc0      0x360 ./lib/emvl2.a(emv_APDU.o)
 .pdr           0x0000000000008f20       0x60 ./lib/emvl2.a(gem_TL.o)
 .pdr           0x0000000000008f80      0x3c0 ./lib/emvl2.a(r_enhanc.o)
 .pdr           0x0000000000009340       0x40 ./lib/emvl2.a(r_keygen.o)
 .pdr           0x0000000000009380      0x100 ./lib/emvl2.a(r_random.o)
 .pdr           0x0000000000009480       0xc0 ./lib/emvl2.a(rsa.o)
 .pdr           0x0000000000009540       0xc0 ./lib/emvl2.a(shsc.o)
 .pdr           0x0000000000009600      0x2e0 ./lib/emvl2.a(NN.o)
 .pdr           0x00000000000098e0      0x1c0 ./lib/emvl2.a(desc.o)
 .pdr           0x0000000000009aa0       0x80 ./lib/emvl2.a(md2c.o)
 .pdr           0x0000000000009b20       0xc0 ./lib/emvl2.a(md4c.o)
 .pdr           0x0000000000009be0       0xc0 ./lib/emvl2.a(md5c.o)
 .pdr           0x0000000000009ca0       0x40 ./lib/emvl2.a(prime.o)
 .pdr           0x0000000000009ce0       0x60 ./lib/emvl2.a(r_encode.o)
 .pdr           0x0000000000009d40       0xe0 ./lib/emvlib.a(emv_power_up.o)
 .pdr           0x0000000000009e20       0x20 ./lib/emvlib.a(emv_set_slot_info.o)
 .pdr           0x0000000000009e40       0xe0 ./lib/emvlib.a(emv_t1.o)
 .pdr           0x0000000000009f20       0x20 ./lib/emvlib.a(emv_transmit.o)
 .pdr           0x0000000000009f40       0x20 ./lib/emvlib.a(hal_scs_attach.o)
 .pdr           0x0000000000009f60       0x20 ./lib/emvlib.a(hal_scs_get_last_error.o)
 .pdr           0x0000000000009f80       0x20 ./lib/emvlib.a(hal_scs_get_slot_info.o)
 .pdr           0x0000000000009fa0       0x20 ./lib/emvlib.a(hal_scs_get_status.o)
 .pdr           0x0000000000009fc0       0x20 ./lib/emvlib.a(hal_scs_power_down.o)
 .pdr           0x0000000000009fe0       0x20 ./lib/emvlib.a(hal_scs_power_up.o)
 .pdr           0x000000000000a000       0x20 ./lib/emvlib.a(hal_scs_pps_exchange.o)
 .pdr           0x000000000000a020       0x20 ./lib/emvlib.a(hal_scs_set_slot_info.o)
 .pdr           0x000000000000a040       0x20 ./lib/emvlib.a(hal_scs_t1_block.o)
 .pdr           0x000000000000a060       0xa0 ./lib/emvlib.a(hal_scs_vsr_power_up.o)
 .pdr           0x000000000000a100       0x40 ./lib/emvlib.a(hal_scs_vsr_pps_exchange.o)
 .pdr           0x000000000000a140       0x40 ./lib/emvlib.a(hal_scs_vsr_t1_block.o)
 .pdr           0x000000000000a180       0x60 ./lib/emvlib.a(emv_atr.o)
 .pdr           0x000000000000a1e0       0x20 ./lib/emvlib.a(emv_power_down.o)
 .pdr           0x000000000000a200       0x60 ./lib/emvlib.a(emv_t0.o)
 .pdr           0x000000000000a260       0x60 ./lib/emvlib.a(hal_scs_handler.o)
 .pdr           0x000000000000a2c0       0x20 ./lib/emvlib.a(hal_scs_t0_in.o)
 .pdr           0x000000000000a2e0       0x20 ./lib/emvlib.a(hal_scs_t0_out.o)
 .pdr           0x000000000000a300       0x40 ./lib/emvlib.a(hal_scs_vsr_t0_in.o)
 .pdr           0x000000000000a340       0x40 ./lib/emvlib.a(hal_scs_vsr_t0_out.o)

.mdebug.abi32   0x0000000000000000        0x0

.debug_abbrev   0x0000000000000000     0x7f05
 .debug_abbrev  0x0000000000000000      0x1d5 ././tmsdown.o
 .debug_abbrev  0x00000000000001d5       0xdb ././timeconv.o
 .debug_abbrev  0x00000000000002b0      0x24c ././scard.o
 .debug_abbrev  0x00000000000004fc       0x6a ././reftable.o
 .debug_abbrev  0x0000000000000566       0x7d ././prtmsg.o
 .debug_abbrev  0x00000000000005e3      0x1c3 ././rtc.o
 .debug_abbrev  0x00000000000007a6      0x21b ././apppos.o
 .debug_abbrev  0x00000000000009c1       0xdb ././rs232.o
 .debug_abbrev  0x0000000000000a9c      0x1f2 ././printer.o
 .debug_abbrev  0x0000000000000c8e      0x1be ././main.o
 .debug_abbrev  0x0000000000000e4c       0x97 ././lcdmsg.o
 .debug_abbrev  0x0000000000000ee3      0x223 ././modem.o
 .debug_abbrev  0x0000000000001106      0x22b ././flash.o
 .debug_abbrev  0x0000000000001331      0x278 ././key.o
 .debug_abbrev  0x00000000000015a9      0x223 ././htmlutil.o
 .debug_abbrev  0x00000000000017cc      0x150 ././hwtest.o
 .debug_abbrev  0x000000000000191c      0x22c ././sfontlib.o
 .debug_abbrev  0x0000000000001b48      0x1a1 ././gsm.o
 .debug_abbrev  0x0000000000001ce9      0x13d ././msr.o
 .debug_abbrev  0x0000000000001e26      0x257 ././btlib/bt_driver/asmutil.o
 .debug_abbrev  0x000000000000207d      0x12b ././btlib/bt_driver/prtutil.o
 .debug_abbrev  0x00000000000021a8       0x49 ././btlib/bt_driver/prtfont.o
 .debug_abbrev  0x00000000000021f1      0x1ab ././btlib/bt_driver/cryptolib.o
 .debug_abbrev  0x000000000000239c      0x1fc ././btlib/bt_driver/ppdrv.o
 .debug_abbrev  0x0000000000002598       0x65 ././btlib/lib/beeplib.o
 .debug_abbrev  0x00000000000025fd      0x102 ././btlib/lib/btsclib.o
 .debug_abbrev  0x00000000000026ff      0x10f ././btlib/lib/commlib.o
 .debug_abbrev  0x000000000000280e       0x49 ././btlib/lib/country.o
 .debug_abbrev  0x0000000000002857       0xf6 ././btlib/lib/frmwri.o
 .debug_abbrev  0x000000000000294d      0x130 ././btlib/lib/gsmlib.o
 .debug_abbrev  0x0000000000002a7d       0xe8 ././btlib/lib/iconlib.o
 .debug_abbrev  0x0000000000002b65      0x111 ././btlib/lib/keylib.o
 .debug_abbrev  0x0000000000002c76      0x11f ././btlib/lib/lcdlib.o
 .debug_abbrev  0x0000000000002d95       0x94 ././btlib/lib/libc.o
 .debug_abbrev  0x0000000000002e29      0x140 ././btlib/lib/magtek_msr.o
 .debug_abbrev  0x0000000000002f69       0x81 ././btlib/lib/memlib.o
 .debug_abbrev  0x0000000000002fea      0x102 ././btlib/lib/msrlib.o
 .debug_abbrev  0x00000000000030ec      0x10a ././btlib/lib/printf.o
 .debug_abbrev  0x00000000000031f6       0x49 ././btlib/lib/prtbitellogo.o
 .debug_abbrev  0x000000000000323f       0x49 ././btlib/lib/prtpmlogo.o
 .debug_abbrev  0x0000000000003288      0x132 ././btlib/lib/rtclib.o
 .debug_abbrev  0x00000000000033ba       0x59 ././btlib/lib/sysinfo.o
 .debug_abbrev  0x0000000000003413       0xc9 ././btlib/lib/timerlib.o
 .debug_abbrev  0x00000000000034dc      0x13c ././btlib/lib/tmslib.o
 .debug_abbrev  0x0000000000003618      0x193 ././btlib/lib/unzip.o
 .debug_abbrev  0x00000000000037ab      0x101 ././btlib/lib/utillib.o
 .debug_abbrev  0x00000000000038ac       0xaf ./lib/atoflib.a(_ATOF.o)
 .debug_abbrev  0x000000000000395b      0x143 ./lib/atoflib.a(__AFCNV.o)
 .debug_abbrev  0x0000000000003a9e       0x23 ./lib/libe.a(_divdf3.o)
 .debug_abbrev  0x0000000000003ac1       0x23 ./lib/libe.a(_muldf3.o)
 .debug_abbrev  0x0000000000003ae4       0x23 ./lib/libe.a(_adddf3.o)
 .debug_abbrev  0x0000000000003b07       0x23 ./lib/libe.a(_fixdfsi.o)
 .debug_abbrev  0x0000000000003b2a       0x23 ./lib/libe.a(_floatsidf.o)
 .debug_abbrev  0x0000000000003b4d       0x32 ./lib/libe.a(_nedf2.o)
 .debug_abbrev  0x0000000000003b7f       0x32 ./lib/libe.a(_gedf2.o)
 .debug_abbrev  0x0000000000003bb1       0x32 ./lib/libe.a(_ltdf2.o)
 .debug_abbrev  0x0000000000003be3       0x32 ./lib/libe.a(_ledf2.o)
 .debug_abbrev  0x0000000000003c15       0x23 ./lib/libe.a(_orderdf2.o)
 .debug_abbrev  0x0000000000003c38      0x1b5 ./lib/emvlib.a(sc_at83c26.o)
 .debug_abbrev  0x0000000000003ded      0x141 ./lib/emvlib.a(emv_init.o)
 .debug_abbrev  0x0000000000003f2e      0x12e ./lib/emvlib.a(emv_timer.o)
 .debug_abbrev  0x000000000000405c       0xe3 ./lib/emvlib.a(hal_scs_cancel.o)
 .debug_abbrev  0x000000000000413f       0xfc ./lib/emvlib.a(hal_scs_dev.o)
 .debug_abbrev  0x000000000000423b      0x120 ./lib/emvlib.a(hal_scs_init.o)
 .debug_abbrev  0x000000000000435b       0xd9 ./lib/emvlib.a(hal_scs_ioctl.o)
 .debug_abbrev  0x0000000000004434       0xff ./lib/emvlib.a(hal_scs_isr.o)
 .debug_abbrev  0x0000000000004533      0x115 ./lib/emvlib.a(hal_scs_set_config.o)
 .debug_abbrev  0x0000000000004648      0x13b ./lib/emvlib.a(hal_apm.o)
 .debug_abbrev  0x0000000000004783      0x182 ./lib/emvlib.a(hal_flash.o)
 .debug_abbrev  0x0000000000004905      0x170 ./lib/emvlib.a(hal_i2c.o)
 .debug_abbrev  0x0000000000004a75       0xff ./lib/emvlib.a(hal_intr.o)
 .debug_abbrev  0x0000000000004b74       0x93 ./lib/emvlib.a(hal_libc.o)
 .debug_abbrev  0x0000000000004c07       0xbd ./lib/emvlib.a(hal_sys_alloc.o)
 .debug_abbrev  0x0000000000004cc4      0x169 ./lib/emvlib.a(hal_timer.o)
 .debug_abbrev  0x0000000000004e2d       0xf4 ./lib/emvlib.a(at83c26_api.o)
 .debug_abbrev  0x0000000000004f21       0xbb ./lib/emvlib.a(at83c26_lib.o)
 .debug_abbrev  0x0000000000004fdc       0xde ./lib/emvlib.a(hal_scs_analog.o)
 .debug_abbrev  0x00000000000050ba       0xb8 ./lib/emvlib.a(hal_scs_clock.o)
 .debug_abbrev  0x0000000000005172       0xe7 ./lib/emvlib.a(hal_scs_counter.o)
 .debug_abbrev  0x0000000000005259      0x130 ./lib/emvl2.a(DES_ECB.o)
 .debug_abbrev  0x0000000000005389      0x23d ./lib/emvl2.a(EMV_APP.o)
 .debug_abbrev  0x00000000000055c6      0x1d5 ./lib/emvl2.a(EMV_CAT.o)
 .debug_abbrev  0x000000000000579b      0x185 ./lib/emvl2.a(emv_APDU.o)
 .debug_abbrev  0x0000000000005920      0x15e ./lib/emvl2.a(gem_TL.o)
 .debug_abbrev  0x0000000000005a7e      0x1b4 ./lib/emvl2.a(r_enhanc.o)
 .debug_abbrev  0x0000000000005c32       0xd8 ./lib/emvl2.a(r_keygen.o)
 .debug_abbrev  0x0000000000005d0a      0x107 ./lib/emvl2.a(r_random.o)
 .debug_abbrev  0x0000000000005e11      0x114 ./lib/emvl2.a(rsa.o)
 .debug_abbrev  0x0000000000005f25      0x10b ./lib/emvl2.a(shsc.o)
 .debug_abbrev  0x0000000000006030      0x167 ./lib/emvl2.a(NN.o)
 .debug_abbrev  0x0000000000006197      0x132 ./lib/emvl2.a(desc.o)
 .debug_abbrev  0x00000000000062c9       0xee ./lib/emvl2.a(md2c.o)
 .debug_abbrev  0x00000000000063b7      0x112 ./lib/emvl2.a(md4c.o)
 .debug_abbrev  0x00000000000064c9      0x112 ./lib/emvl2.a(md5c.o)
 .debug_abbrev  0x00000000000065db       0xcc ./lib/emvl2.a(prime.o)
 .debug_abbrev  0x00000000000066a7       0x98 ./lib/emvl2.a(r_encode.o)
 .debug_abbrev  0x000000000000673f      0x214 ./lib/emvlib.a(emv_power_up.o)
 .debug_abbrev  0x0000000000006953       0xf2 ./lib/emvlib.a(emv_set_slot_info.o)
 .debug_abbrev  0x0000000000006a45      0x1ce ./lib/emvlib.a(emv_t1.o)
 .debug_abbrev  0x0000000000006c13       0xe3 ./lib/emvlib.a(emv_transmit.o)
 .debug_abbrev  0x0000000000006cf6       0xce ./lib/emvlib.a(hal_scs_attach.o)
 .debug_abbrev  0x0000000000006dc4       0xce ./lib/emvlib.a(hal_scs_get_last_error.o)
 .debug_abbrev  0x0000000000006e92      0x115 ./lib/emvlib.a(hal_scs_get_slot_info.o)
 .debug_abbrev  0x0000000000006fa7       0xce ./lib/emvlib.a(hal_scs_get_status.o)
 .debug_abbrev  0x0000000000007075       0xd9 ./lib/emvlib.a(hal_scs_power_down.o)
 .debug_abbrev  0x000000000000714e       0xd9 ./lib/emvlib.a(hal_scs_power_up.o)
 .debug_abbrev  0x0000000000007227       0xd9 ./lib/emvlib.a(hal_scs_pps_exchange.o)
 .debug_abbrev  0x0000000000007300      0x120 ./lib/emvlib.a(hal_scs_set_slot_info.o)
 .debug_abbrev  0x0000000000007420       0xd9 ./lib/emvlib.a(hal_scs_t1_block.o)
 .debug_abbrev  0x00000000000074f9      0x14f ./lib/emvlib.a(hal_scs_vsr_power_up.o)
 .debug_abbrev  0x0000000000007648       0xd2 ./lib/emvlib.a(hal_scs_vsr_pps_exchange.o)
 .debug_abbrev  0x000000000000771a       0xe5 ./lib/emvlib.a(hal_scs_vsr_t1_block.o)
 .debug_abbrev  0x00000000000077ff      0x145 ./lib/emvlib.a(emv_atr.o)
 .debug_abbrev  0x0000000000007944       0x45 ./lib/emvlib.a(emv_power_down.o)
 .debug_abbrev  0x0000000000007989      0x141 ./lib/emvlib.a(emv_t0.o)
 .debug_abbrev  0x0000000000007aca       0xc0 ./lib/emvlib.a(hal_scs_handler.o)
 .debug_abbrev  0x0000000000007b8a       0xd9 ./lib/emvlib.a(hal_scs_t0_in.o)
 .debug_abbrev  0x0000000000007c63       0xd9 ./lib/emvlib.a(hal_scs_t0_out.o)
 .debug_abbrev  0x0000000000007d3c       0xea ./lib/emvlib.a(hal_scs_vsr_t0_in.o)
 .debug_abbrev  0x0000000000007e26       0xdf ./lib/emvlib.a(hal_scs_vsr_t0_out.o)

.debug_info     0x0000000000000000    0x520ba
 .debug_info    0x0000000000000000     0x1e98 ././tmsdown.o
 .debug_info    0x0000000000001e98      0x4c6 ././timeconv.o
 .debug_info    0x000000000000235e     0x304d ././scard.o
 .debug_info    0x00000000000053ab      0x237 ././reftable.o
 .debug_info    0x00000000000055e2      0x1f8 ././prtmsg.o
 .debug_info    0x00000000000057da     0x213d ././rtc.o
 .debug_info    0x0000000000007917     0x2f02 ././apppos.o
 .debug_info    0x000000000000a819      0x3b3 ././rs232.o
 .debug_info    0x000000000000abcc     0x3b53 ././printer.o
 .debug_info    0x000000000000e71f     0x27b1 ././main.o
 .debug_info    0x0000000000010ed0      0x2b3 ././lcdmsg.o
 .debug_info    0x0000000000011183     0x2979 ././modem.o
 .debug_info    0x0000000000013afc     0x2c2f ././flash.o
 .debug_info    0x000000000001672b     0x3d0c ././key.o
 .debug_info    0x000000000001a437     0x34a0 ././htmlutil.o
 .debug_info    0x000000000001d8d7     0x14aa ././hwtest.o
 .debug_info    0x000000000001ed81     0x15cb ././sfontlib.o
 .debug_info    0x000000000002034c     0x28d1 ././gsm.o
 .debug_info    0x0000000000022c1d      0xf5f ././msr.o
 .debug_info    0x0000000000023b7c     0x5e22 ././btlib/bt_driver/asmutil.o
 .debug_info    0x000000000002999e     0x1183 ././btlib/bt_driver/prtutil.o
 .debug_info    0x000000000002ab21       0xff ././btlib/bt_driver/prtfont.o
 .debug_info    0x000000000002ac20     0x1b38 ././btlib/bt_driver/cryptolib.o
 .debug_info    0x000000000002c758     0x16e7 ././btlib/bt_driver/ppdrv.o
 .debug_info    0x000000000002de3f      0x179 ././btlib/lib/beeplib.o
 .debug_info    0x000000000002dfb8      0xc09 ././btlib/lib/btsclib.o
 .debug_info    0x000000000002ebc1      0x5ad ././btlib/lib/commlib.o
 .debug_info    0x000000000002f16e       0xdb ././btlib/lib/country.o
 .debug_info    0x000000000002f249      0x41f ././btlib/lib/frmwri.o
 .debug_info    0x000000000002f668      0x57d ././btlib/lib/gsmlib.o
 .debug_info    0x000000000002fbe5      0x528 ././btlib/lib/iconlib.o
 .debug_info    0x000000000003010d      0x974 ././btlib/lib/keylib.o
 .debug_info    0x0000000000030a81      0x585 ././btlib/lib/lcdlib.o
 .debug_info    0x0000000000031006      0x20a ././btlib/lib/libc.o
 .debug_info    0x0000000000031210      0xe49 ././btlib/lib/magtek_msr.o
 .debug_info    0x0000000000032059      0x34f ././btlib/lib/memlib.o
 .debug_info    0x00000000000323a8      0x638 ././btlib/lib/msrlib.o
 .debug_info    0x00000000000329e0      0x3f4 ././btlib/lib/printf.o
 .debug_info    0x0000000000032dd4       0xdf ././btlib/lib/prtbitellogo.o
 .debug_info    0x0000000000032eb3       0xd9 ././btlib/lib/prtpmlogo.o
 .debug_info    0x0000000000032f8c      0x851 ././btlib/lib/rtclib.o
 .debug_info    0x00000000000337dd      0x15c ././btlib/lib/sysinfo.o
 .debug_info    0x0000000000033939      0x3b4 ././btlib/lib/timerlib.o
 .debug_info    0x0000000000033ced      0xc91 ././btlib/lib/tmslib.o
 .debug_info    0x000000000003497e      0xf4d ././btlib/lib/unzip.o
 .debug_info    0x00000000000358cb      0xd24 ././btlib/lib/utillib.o
 .debug_info    0x00000000000365ef      0x194 ./lib/atoflib.a(_ATOF.o)
 .debug_info    0x0000000000036783      0x6a9 ./lib/atoflib.a(__AFCNV.o)
 .debug_info    0x0000000000036e2c       0x30 ./lib/libe.a(_divdf3.o)
 .debug_info    0x0000000000036e5c       0x30 ./lib/libe.a(_muldf3.o)
 .debug_info    0x0000000000036e8c       0x42 ./lib/libe.a(_adddf3.o)
 .debug_info    0x0000000000036ece       0x30 ./lib/libe.a(_fixdfsi.o)
 .debug_info    0x0000000000036efe       0x30 ./lib/libe.a(_floatsidf.o)
 .debug_info    0x0000000000036f2e       0x3a ./lib/libe.a(_nedf2.o)
 .debug_info    0x0000000000036f68       0x3a ./lib/libe.a(_gedf2.o)
 .debug_info    0x0000000000036fa2       0x3a ./lib/libe.a(_ltdf2.o)
 .debug_info    0x0000000000036fdc       0x3a ./lib/libe.a(_ledf2.o)
 .debug_info    0x0000000000037016       0x30 ./lib/libe.a(_orderdf2.o)
 .debug_info    0x0000000000037046      0x714 ./lib/emvlib.a(sc_at83c26.o)
 .debug_info    0x000000000003775a      0x534 ./lib/emvlib.a(emv_init.o)
 .debug_info    0x0000000000037c8e      0x549 ./lib/emvlib.a(emv_timer.o)
 .debug_info    0x00000000000381d7      0x43e ./lib/emvlib.a(hal_scs_cancel.o)
 .debug_info    0x0000000000038615      0x78b ./lib/emvlib.a(hal_scs_dev.o)
 .debug_info    0x0000000000038da0      0x4dd ./lib/emvlib.a(hal_scs_init.o)
 .debug_info    0x000000000003927d      0x415 ./lib/emvlib.a(hal_scs_ioctl.o)
 .debug_info    0x0000000000039692      0x518 ./lib/emvlib.a(hal_scs_isr.o)
 .debug_info    0x0000000000039baa      0x4e4 ./lib/emvlib.a(hal_scs_set_config.o)
 .debug_info    0x000000000003a08e      0xb10 ./lib/emvlib.a(hal_apm.o)
 .debug_info    0x000000000003ab9e      0xf58 ./lib/emvlib.a(hal_flash.o)
 .debug_info    0x000000000003baf6      0x7db ./lib/emvlib.a(hal_i2c.o)
 .debug_info    0x000000000003c2d1      0x4d9 ./lib/emvlib.a(hal_intr.o)
 .debug_info    0x000000000003c7aa      0x25e ./lib/emvlib.a(hal_libc.o)
 .debug_info    0x000000000003ca08      0x346 ./lib/emvlib.a(hal_sys_alloc.o)
 .debug_info    0x000000000003cd4e      0xc00 ./lib/emvlib.a(hal_timer.o)
 .debug_info    0x000000000003d94e      0x61e ./lib/emvlib.a(at83c26_api.o)
 .debug_info    0x000000000003df6c      0x31f ./lib/emvlib.a(at83c26_lib.o)
 .debug_info    0x000000000003e28b      0x478 ./lib/emvlib.a(hal_scs_analog.o)
 .debug_info    0x000000000003e703      0x436 ./lib/emvlib.a(hal_scs_clock.o)
 .debug_info    0x000000000003eb39      0x62a ./lib/emvlib.a(hal_scs_counter.o)
 .debug_info    0x000000000003f163      0xa74 ./lib/emvl2.a(DES_ECB.o)
 .debug_info    0x000000000003fbd7     0x288f ./lib/emvl2.a(EMV_APP.o)
 .debug_info    0x0000000000042466     0x1108 ./lib/emvl2.a(EMV_CAT.o)
 .debug_info    0x000000000004356e     0x13a3 ./lib/emvl2.a(emv_APDU.o)
 .debug_info    0x0000000000044911      0x4ef ./lib/emvl2.a(gem_TL.o)
 .debug_info    0x0000000000044e00     0x19ba ./lib/emvl2.a(r_enhanc.o)
 .debug_info    0x00000000000467ba      0x5bd ./lib/emvl2.a(r_keygen.o)
 .debug_info    0x0000000000046d77      0x59f ./lib/emvl2.a(r_random.o)
 .debug_info    0x0000000000047316      0x85e ./lib/emvl2.a(rsa.o)
 .debug_info    0x0000000000047b74      0x46f ./lib/emvl2.a(shsc.o)
 .debug_info    0x0000000000047fe3      0xdff ./lib/emvl2.a(NN.o)
 .debug_info    0x0000000000048de2      0x989 ./lib/emvl2.a(desc.o)
 .debug_info    0x000000000004976b      0x38f ./lib/emvl2.a(md2c.o)
 .debug_info    0x0000000000049afa      0x46c ./lib/emvl2.a(md4c.o)
 .debug_info    0x0000000000049f66      0x473 ./lib/emvl2.a(md5c.o)
 .debug_info    0x000000000004a3d9      0x36d ./lib/emvl2.a(prime.o)
 .debug_info    0x000000000004a746      0x37c ./lib/emvl2.a(r_encode.o)
 .debug_info    0x000000000004aac2      0xa47 ./lib/emvlib.a(emv_power_up.o)
 .debug_info    0x000000000004b509      0x4c1 ./lib/emvlib.a(emv_set_slot_info.o)
 .debug_info    0x000000000004b9ca      0x84d ./lib/emvlib.a(emv_t1.o)
 .debug_info    0x000000000004c217      0x4ab ./lib/emvlib.a(emv_transmit.o)
 .debug_info    0x000000000004c6c2      0x416 ./lib/emvlib.a(hal_scs_attach.o)
 .debug_info    0x000000000004cad8      0x407 ./lib/emvlib.a(hal_scs_get_last_error.o)
 .debug_info    0x000000000004cedf      0x4a7 ./lib/emvlib.a(hal_scs_get_slot_info.o)
 .debug_info    0x000000000004d386      0x439 ./lib/emvlib.a(hal_scs_get_status.o)
 .debug_info    0x000000000004d7bf      0x401 ./lib/emvlib.a(hal_scs_power_down.o)
 .debug_info    0x000000000004dbc0      0x4c0 ./lib/emvlib.a(hal_scs_power_up.o)
 .debug_info    0x000000000004e080      0x4c3 ./lib/emvlib.a(hal_scs_pps_exchange.o)
 .debug_info    0x000000000004e543      0x4ac ./lib/emvlib.a(hal_scs_set_slot_info.o)
 .debug_info    0x000000000004e9ef      0x4d3 ./lib/emvlib.a(hal_scs_t1_block.o)
 .debug_info    0x000000000004eec2      0x645 ./lib/emvlib.a(hal_scs_vsr_power_up.o)
 .debug_info    0x000000000004f507      0x42c ./lib/emvlib.a(hal_scs_vsr_pps_exchange.o)
 .debug_info    0x000000000004f933      0x45d ./lib/emvlib.a(hal_scs_vsr_t1_block.o)
 .debug_info    0x000000000004fd90      0x6bc ./lib/emvlib.a(emv_atr.o)
 .debug_info    0x000000000005044c       0xda ./lib/emvlib.a(emv_power_down.o)
 .debug_info    0x0000000000050526      0x52b ./lib/emvlib.a(emv_t0.o)
 .debug_info    0x0000000000050a51      0x427 ./lib/emvlib.a(hal_scs_handler.o)
 .debug_info    0x0000000000050e78      0x4cb ./lib/emvlib.a(hal_scs_t0_in.o)
 .debug_info    0x0000000000051343      0x4cd ./lib/emvlib.a(hal_scs_t0_out.o)
 .debug_info    0x0000000000051810      0x47e ./lib/emvlib.a(hal_scs_vsr_t0_in.o)
 .debug_info    0x0000000000051c8e      0x42c ./lib/emvlib.a(hal_scs_vsr_t0_out.o)

.debug_line     0x0000000000000000     0xf56f
 .debug_line    0x0000000000000000      0x5cd ././tmsdown.o
 .debug_line    0x00000000000005cd      0x12e ././timeconv.o
 .debug_line    0x00000000000006fb      0x476 ././scard.o
 .debug_line    0x0000000000000b71       0x28 ././reftable.o
 .debug_line    0x0000000000000b99       0x33 ././prtmsg.o
 .debug_line    0x0000000000000bcc      0x22e ././rtc.o
 .debug_line    0x0000000000000dfa      0x2a9 ././apppos.o
 .debug_line    0x00000000000010a3       0xb3 ././rs232.o
 .debug_line    0x0000000000001156      0xa06 ././printer.o
 .debug_line    0x0000000000001b5c      0x26a ././main.o
 .debug_line    0x0000000000001dc6       0x33 ././lcdmsg.o
 .debug_line    0x0000000000001df9      0x29c ././modem.o
 .debug_line    0x0000000000002095      0x1ef ././flash.o
 .debug_line    0x0000000000002284     0x1217 ././key.o
 .debug_line    0x000000000000349b      0x8ee ././htmlutil.o
 .debug_line    0x0000000000003d89      0x439 ././hwtest.o
 .debug_line    0x00000000000041c2      0x48f ././sfontlib.o
 .debug_line    0x0000000000004651      0xcaf ././gsm.o
 .debug_line    0x0000000000005300      0x116 ././msr.o
 .debug_line    0x0000000000005416      0xb04 ././btlib/bt_driver/asmutil.o
 .debug_line    0x0000000000005f1a      0x41a ././btlib/bt_driver/prtutil.o
 .debug_line    0x0000000000006334       0x27 ././btlib/bt_driver/prtfont.o
 .debug_line    0x000000000000635b      0x753 ././btlib/bt_driver/cryptolib.o
 .debug_line    0x0000000000006aae      0x82b ././btlib/bt_driver/ppdrv.o
 .debug_line    0x00000000000072d9       0x50 ././btlib/lib/beeplib.o
 .debug_line    0x0000000000007329      0x221 ././btlib/lib/btsclib.o
 .debug_line    0x000000000000754a      0x131 ././btlib/lib/commlib.o
 .debug_line    0x000000000000767b       0x2f ././btlib/lib/country.o
 .debug_line    0x00000000000076aa      0x230 ././btlib/lib/frmwri.o
 .debug_line    0x00000000000078da      0x48c ././btlib/lib/gsmlib.o
 .debug_line    0x0000000000007d66       0xce ././btlib/lib/iconlib.o
 .debug_line    0x0000000000007e34      0x505 ././btlib/lib/keylib.o
 .debug_line    0x0000000000008339      0x140 ././btlib/lib/lcdlib.o
 .debug_line    0x0000000000008479       0xac ././btlib/lib/libc.o
 .debug_line    0x0000000000008525      0x393 ././btlib/lib/magtek_msr.o
 .debug_line    0x00000000000088b8       0x7f ././btlib/lib/memlib.o
 .debug_line    0x0000000000008937      0x1e6 ././btlib/lib/msrlib.o
 .debug_line    0x0000000000008b1d      0x145 ././btlib/lib/printf.o
 .debug_line    0x0000000000008c62       0x34 ././btlib/lib/prtbitellogo.o
 .debug_line    0x0000000000008c96       0x31 ././btlib/lib/prtpmlogo.o
 .debug_line    0x0000000000008cc7      0x229 ././btlib/lib/rtclib.o
 .debug_line    0x0000000000008ef0       0x55 ././btlib/lib/sysinfo.o
 .debug_line    0x0000000000008f45       0xd6 ././btlib/lib/timerlib.o
 .debug_line    0x000000000000901b      0x382 ././btlib/lib/tmslib.o
 .debug_line    0x000000000000939d      0x3ee ././btlib/lib/unzip.o
 .debug_line    0x000000000000978b      0x25a ././btlib/lib/utillib.o
 .debug_line    0x00000000000099e5       0x9d ./lib/atoflib.a(_ATOF.o)
 .debug_line    0x0000000000009a82      0x220 ./lib/atoflib.a(__AFCNV.o)
 .debug_line    0x0000000000009ca2       0x61 ./lib/libe.a(_divdf3.o)
 .debug_line    0x0000000000009d03       0x61 ./lib/libe.a(_muldf3.o)
 .debug_line    0x0000000000009d64       0x61 ./lib/libe.a(_adddf3.o)
 .debug_line    0x0000000000009dc5       0x62 ./lib/libe.a(_fixdfsi.o)
 .debug_line    0x0000000000009e27       0x62 ./lib/libe.a(_floatsidf.o)
 .debug_line    0x0000000000009e89       0x61 ./lib/libe.a(_nedf2.o)
 .debug_line    0x0000000000009eea       0x61 ./lib/libe.a(_gedf2.o)
 .debug_line    0x0000000000009f4b       0x61 ./lib/libe.a(_ltdf2.o)
 .debug_line    0x0000000000009fac       0x61 ./lib/libe.a(_ledf2.o)
 .debug_line    0x000000000000a00d       0x63 ./lib/libe.a(_orderdf2.o)
 .debug_line    0x000000000000a070      0x224 ./lib/emvlib.a(sc_at83c26.o)
 .debug_line    0x000000000000a294       0xc8 ./lib/emvlib.a(emv_init.o)
 .debug_line    0x000000000000a35c       0xc6 ./lib/emvlib.a(emv_timer.o)
 .debug_line    0x000000000000a422       0x83 ./lib/emvlib.a(hal_scs_cancel.o)
 .debug_line    0x000000000000a4a5      0x113 ./lib/emvlib.a(hal_scs_dev.o)
 .debug_line    0x000000000000a5b8       0xd3 ./lib/emvlib.a(hal_scs_init.o)
 .debug_line    0x000000000000a68b       0xd4 ./lib/emvlib.a(hal_scs_ioctl.o)
 .debug_line    0x000000000000a75f      0x10d ./lib/emvlib.a(hal_scs_isr.o)
 .debug_line    0x000000000000a86c       0xa0 ./lib/emvlib.a(hal_scs_set_config.o)
 .debug_line    0x000000000000a90c      0x18a ./lib/emvlib.a(hal_apm.o)
 .debug_line    0x000000000000aa96      0x377 ./lib/emvlib.a(hal_flash.o)
 .debug_line    0x000000000000ae0d      0x241 ./lib/emvlib.a(hal_i2c.o)
 .debug_line    0x000000000000b04e       0xb2 ./lib/emvlib.a(hal_intr.o)
 .debug_line    0x000000000000b100       0xbf ./lib/emvlib.a(hal_libc.o)
 .debug_line    0x000000000000b1bf       0xcb ./lib/emvlib.a(hal_sys_alloc.o)
 .debug_line    0x000000000000b28a      0x250 ./lib/emvlib.a(hal_timer.o)
 .debug_line    0x000000000000b4da      0x1d1 ./lib/emvlib.a(at83c26_api.o)
 .debug_line    0x000000000000b6ab       0x93 ./lib/emvlib.a(at83c26_lib.o)
 .debug_line    0x000000000000b73e       0x76 ./lib/emvlib.a(hal_scs_analog.o)
 .debug_line    0x000000000000b7b4       0x70 ./lib/emvlib.a(hal_scs_clock.o)
 .debug_line    0x000000000000b824       0xc3 ./lib/emvlib.a(hal_scs_counter.o)
 .debug_line    0x000000000000b8e7      0x156 ./lib/emvl2.a(DES_ECB.o)
 .debug_line    0x000000000000ba3d      0xa70 ./lib/emvl2.a(EMV_APP.o)
 .debug_line    0x000000000000c4ad      0x305 ./lib/emvl2.a(EMV_CAT.o)
 .debug_line    0x000000000000c7b2      0x4d0 ./lib/emvl2.a(emv_APDU.o)
 .debug_line    0x000000000000cc82      0x1d8 ./lib/emvl2.a(gem_TL.o)
 .debug_line    0x000000000000ce5a      0x31c ./lib/emvl2.a(r_enhanc.o)
 .debug_line    0x000000000000d176      0x138 ./lib/emvl2.a(r_keygen.o)
 .debug_line    0x000000000000d2ae      0x118 ./lib/emvl2.a(r_random.o)
 .debug_line    0x000000000000d3c6      0x19b ./lib/emvl2.a(rsa.o)
 .debug_line    0x000000000000d561      0x18b ./lib/emvl2.a(shsc.o)
 .debug_line    0x000000000000d6ec      0x2c5 ./lib/emvl2.a(NN.o)
 .debug_line    0x000000000000d9b1      0x25b ./lib/emvl2.a(desc.o)
 .debug_line    0x000000000000dc0c       0xbc ./lib/emvl2.a(md2c.o)
 .debug_line    0x000000000000dcc8      0x167 ./lib/emvl2.a(md4c.o)
 .debug_line    0x000000000000de2f      0x197 ./lib/emvl2.a(md5c.o)
 .debug_line    0x000000000000dfc6       0xe6 ./lib/emvl2.a(prime.o)
 .debug_line    0x000000000000e0ac       0xb7 ./lib/emvl2.a(r_encode.o)
 .debug_line    0x000000000000e163      0x235 ./lib/emvlib.a(emv_power_up.o)
 .debug_line    0x000000000000e398       0x84 ./lib/emvlib.a(emv_set_slot_info.o)
 .debug_line    0x000000000000e41c      0x227 ./lib/emvlib.a(emv_t1.o)
 .debug_line    0x000000000000e643       0x84 ./lib/emvlib.a(emv_transmit.o)
 .debug_line    0x000000000000e6c7       0x67 ./lib/emvlib.a(hal_scs_attach.o)
 .debug_line    0x000000000000e72e       0x67 ./lib/emvlib.a(hal_scs_get_last_error.o)
 .debug_line    0x000000000000e795       0x90 ./lib/emvlib.a(hal_scs_get_slot_info.o)
 .debug_line    0x000000000000e825       0x92 ./lib/emvlib.a(hal_scs_get_status.o)
 .debug_line    0x000000000000e8b7       0x77 ./lib/emvlib.a(hal_scs_power_down.o)
 .debug_line    0x000000000000e92e       0xea ./lib/emvlib.a(hal_scs_power_up.o)
 .debug_line    0x000000000000ea18       0xba ./lib/emvlib.a(hal_scs_pps_exchange.o)
 .debug_line    0x000000000000ead2       0xa2 ./lib/emvlib.a(hal_scs_set_slot_info.o)
 .debug_line    0x000000000000eb74       0xcb ./lib/emvlib.a(hal_scs_t1_block.o)
 .debug_line    0x000000000000ec3f      0x146 ./lib/emvlib.a(hal_scs_vsr_power_up.o)
 .debug_line    0x000000000000ed85       0xe4 ./lib/emvlib.a(hal_scs_vsr_pps_exchange.o)
 .debug_line    0x000000000000ee69       0xe2 ./lib/emvlib.a(hal_scs_vsr_t1_block.o)
 .debug_line    0x000000000000ef4b      0x140 ./lib/emvlib.a(emv_atr.o)
 .debug_line    0x000000000000f08b       0x47 ./lib/emvlib.a(emv_power_down.o)
 .debug_line    0x000000000000f0d2      0x102 ./lib/emvlib.a(emv_t0.o)
 .debug_line    0x000000000000f1d4       0x7f ./lib/emvlib.a(hal_scs_handler.o)
 .debug_line    0x000000000000f253       0xba ./lib/emvlib.a(hal_scs_t0_in.o)
 .debug_line    0x000000000000f30d       0xb8 ./lib/emvlib.a(hal_scs_t0_out.o)
 .debug_line    0x000000000000f3c5       0xdb ./lib/emvlib.a(hal_scs_vsr_t0_in.o)
 .debug_line    0x000000000000f4a0       0xcf ./lib/emvlib.a(hal_scs_vsr_t0_out.o)

.debug_frame    0x0000000000000000     0x6e50
 .debug_frame   0x0000000000000000      0x1c8 ././tmsdown.o
 .debug_frame   0x00000000000001c8       0x6c ././timeconv.o
 .debug_frame   0x0000000000000234      0x270 ././scard.o
 .debug_frame   0x00000000000004a4       0xe8 ././rtc.o
 .debug_frame   0x000000000000058c      0x16c ././apppos.o
 .debug_frame   0x00000000000006f8       0x58 ././rs232.o
 .debug_frame   0x0000000000000750      0x454 ././printer.o
 .debug_frame   0x0000000000000ba4       0x40 ././main.o
 .debug_frame   0x0000000000000be4      0x118 ././modem.o
 .debug_frame   0x0000000000000cfc      0x148 ././flash.o
 .debug_frame   0x0000000000000e44      0x2c4 ././key.o
 .debug_frame   0x0000000000001108      0x258 ././htmlutil.o
 .debug_frame   0x0000000000001360      0x100 ././hwtest.o
 .debug_frame   0x0000000000001460      0x30c ././sfontlib.o
 .debug_frame   0x000000000000176c      0x1ac ././gsm.o
 .debug_frame   0x0000000000001918       0x8c ././msr.o
 .debug_frame   0x00000000000019a4      0xea8 ././btlib/bt_driver/asmutil.o
 .debug_frame   0x000000000000284c      0x234 ././btlib/bt_driver/prtutil.o
 .debug_frame   0x0000000000002a80      0x290 ././btlib/bt_driver/cryptolib.o
 .debug_frame   0x0000000000002d10      0x2f8 ././btlib/bt_driver/ppdrv.o
 .debug_frame   0x0000000000003008       0x78 ././btlib/lib/beeplib.o
 .debug_frame   0x0000000000003080      0x364 ././btlib/lib/btsclib.o
 .debug_frame   0x00000000000033e4       0xcc ././btlib/lib/commlib.o
 .debug_frame   0x00000000000034b0       0x40 ././btlib/lib/frmwri.o
 .debug_frame   0x00000000000034f0       0x48 ././btlib/lib/gsmlib.o
 .debug_frame   0x0000000000003538       0x88 ././btlib/lib/iconlib.o
 .debug_frame   0x00000000000035c0      0x154 ././btlib/lib/keylib.o
 .debug_frame   0x0000000000003714      0x148 ././btlib/lib/lcdlib.o
 .debug_frame   0x000000000000385c       0x50 ././btlib/lib/libc.o
 .debug_frame   0x00000000000038ac      0x1e0 ././btlib/lib/magtek_msr.o
 .debug_frame   0x0000000000003a8c       0x70 ././btlib/lib/memlib.o
 .debug_frame   0x0000000000003afc       0xe4 ././btlib/lib/msrlib.o
 .debug_frame   0x0000000000003be0       0x80 ././btlib/lib/printf.o
 .debug_frame   0x0000000000003c60       0xec ././btlib/lib/rtclib.o
 .debug_frame   0x0000000000003d4c       0x38 ././btlib/lib/sysinfo.o
 .debug_frame   0x0000000000003d84       0xc0 ././btlib/lib/timerlib.o
 .debug_frame   0x0000000000003e44      0x144 ././btlib/lib/tmslib.o
 .debug_frame   0x0000000000003f88      0x1cc ././btlib/lib/unzip.o
 .debug_frame   0x0000000000004154      0x280 ././btlib/lib/utillib.o
 .debug_frame   0x00000000000043d4       0x48 ./lib/atoflib.a(_ATOF.o)
 .debug_frame   0x000000000000441c      0x108 ./lib/atoflib.a(__AFCNV.o)
 .debug_frame   0x0000000000004524       0x20 ./lib/libe.a(_divdf3.o)
 .debug_frame   0x0000000000004544       0x30 ./lib/libe.a(_muldf3.o)
 .debug_frame   0x0000000000004574       0x40 ./lib/libe.a(_adddf3.o)
 .debug_frame   0x00000000000045b4       0x20 ./lib/libe.a(_fixdfsi.o)
 .debug_frame   0x00000000000045d4       0x20 ./lib/libe.a(_floatsidf.o)
 .debug_frame   0x00000000000045f4       0x20 ./lib/libe.a(_nedf2.o)
 .debug_frame   0x0000000000004614       0x20 ./lib/libe.a(_gedf2.o)
 .debug_frame   0x0000000000004634       0x20 ./lib/libe.a(_ltdf2.o)
 .debug_frame   0x0000000000004654       0x20 ./lib/libe.a(_ledf2.o)
 .debug_frame   0x0000000000004674       0x20 ./lib/libe.a(_orderdf2.o)
 .debug_frame   0x0000000000004694       0xf8 ./lib/emvlib.a(sc_at83c26.o)
 .debug_frame   0x000000000000478c       0x28 ./lib/emvlib.a(emv_init.o)
 .debug_frame   0x00000000000047b4       0x70 ./lib/emvlib.a(emv_timer.o)
 .debug_frame   0x0000000000004824       0x40 ./lib/emvlib.a(hal_scs_cancel.o)
 .debug_frame   0x0000000000004864      0x14c ./lib/emvlib.a(hal_scs_dev.o)
 .debug_frame   0x00000000000049b0       0x28 ./lib/emvlib.a(hal_scs_init.o)
 .debug_frame   0x00000000000049d8       0x2c ./lib/emvlib.a(hal_scs_ioctl.o)
 .debug_frame   0x0000000000004a04       0x88 ./lib/emvlib.a(hal_scs_isr.o)
 .debug_frame   0x0000000000004a8c       0x28 ./lib/emvlib.a(hal_scs_set_config.o)
 .debug_frame   0x0000000000004ab4      0x17c ./lib/emvlib.a(hal_apm.o)
 .debug_frame   0x0000000000004c30      0x29c ./lib/emvlib.a(hal_flash.o)
 .debug_frame   0x0000000000004ecc      0x134 ./lib/emvlib.a(hal_i2c.o)
 .debug_frame   0x0000000000005000       0x7c ./lib/emvlib.a(hal_intr.o)
 .debug_frame   0x000000000000507c       0x4c ./lib/emvlib.a(hal_libc.o)
 .debug_frame   0x00000000000050c8       0x74 ./lib/emvlib.a(hal_sys_alloc.o)
 .debug_frame   0x000000000000513c       0xf8 ./lib/emvlib.a(hal_timer.o)
 .debug_frame   0x0000000000005234      0x158 ./lib/emvlib.a(at83c26_api.o)
 .debug_frame   0x000000000000538c       0x58 ./lib/emvlib.a(at83c26_lib.o)
 .debug_frame   0x00000000000053e4       0x58 ./lib/emvlib.a(hal_scs_analog.o)
 .debug_frame   0x000000000000543c       0x28 ./lib/emvlib.a(hal_scs_clock.o)
 .debug_frame   0x0000000000005464       0xb0 ./lib/emvlib.a(hal_scs_counter.o)
 .debug_frame   0x0000000000005514      0x128 ./lib/emvl2.a(DES_ECB.o)
 .debug_frame   0x000000000000563c      0x340 ./lib/emvl2.a(EMV_APP.o)
 .debug_frame   0x000000000000597c      0x15c ./lib/emvl2.a(EMV_CAT.o)
 .debug_frame   0x0000000000005ad8      0x28c ./lib/emvl2.a(emv_APDU.o)
 .debug_frame   0x0000000000005d64       0x50 ./lib/emvl2.a(gem_TL.o)
 .debug_frame   0x0000000000005db4      0x2dc ./lib/emvl2.a(r_enhanc.o)
 .debug_frame   0x0000000000006090       0x40 ./lib/emvl2.a(r_keygen.o)
 .debug_frame   0x00000000000060d0       0xc8 ./lib/emvl2.a(r_random.o)
 .debug_frame   0x0000000000006198       0xa0 ./lib/emvl2.a(rsa.o)
 .debug_frame   0x0000000000006238       0x94 ./lib/emvl2.a(shsc.o)
 .debug_frame   0x00000000000062cc      0x208 ./lib/emvl2.a(NN.o)
 .debug_frame   0x00000000000064d4      0x130 ./lib/emvl2.a(desc.o)
 .debug_frame   0x0000000000006604       0x70 ./lib/emvl2.a(md2c.o)
 .debug_frame   0x0000000000006674       0x90 ./lib/emvl2.a(md4c.o)
 .debug_frame   0x0000000000006704       0x90 ./lib/emvl2.a(md5c.o)
 .debug_frame   0x0000000000006794       0x40 ./lib/emvl2.a(prime.o)
 .debug_frame   0x00000000000067d4       0x50 ./lib/emvl2.a(r_encode.o)
 .debug_frame   0x0000000000006824       0xc4 ./lib/emvlib.a(emv_power_up.o)
 .debug_frame   0x00000000000068e8       0x28 ./lib/emvlib.a(emv_set_slot_info.o)
 .debug_frame   0x0000000000006910       0xbc ./lib/emvlib.a(emv_t1.o)
 .debug_frame   0x00000000000069cc       0x2c ./lib/emvlib.a(emv_transmit.o)
 .debug_frame   0x00000000000069f8       0x24 ./lib/emvlib.a(hal_scs_attach.o)
 .debug_frame   0x0000000000006a1c       0x24 ./lib/emvlib.a(hal_scs_get_last_error.o)
 .debug_frame   0x0000000000006a40       0x24 ./lib/emvlib.a(hal_scs_get_slot_info.o)
 .debug_frame   0x0000000000006a64       0x28 ./lib/emvlib.a(hal_scs_get_status.o)
 .debug_frame   0x0000000000006a8c       0x28 ./lib/emvlib.a(hal_scs_power_down.o)
 .debug_frame   0x0000000000006ab4       0x28 ./lib/emvlib.a(hal_scs_power_up.o)
 .debug_frame   0x0000000000006adc       0x28 ./lib/emvlib.a(hal_scs_pps_exchange.o)
 .debug_frame   0x0000000000006b04       0x24 ./lib/emvlib.a(hal_scs_set_slot_info.o)
 .debug_frame   0x0000000000006b28       0x28 ./lib/emvlib.a(hal_scs_t1_block.o)
 .debug_frame   0x0000000000006b50       0x84 ./lib/emvlib.a(hal_scs_vsr_power_up.o)
 .debug_frame   0x0000000000006bd4       0x40 ./lib/emvlib.a(hal_scs_vsr_pps_exchange.o)
 .debug_frame   0x0000000000006c14       0x40 ./lib/emvlib.a(hal_scs_vsr_t1_block.o)
 .debug_frame   0x0000000000006c54       0x4c ./lib/emvlib.a(emv_atr.o)
 .debug_frame   0x0000000000006ca0       0x28 ./lib/emvlib.a(emv_power_down.o)
 .debug_frame   0x0000000000006cc8       0x60 ./lib/emvlib.a(emv_t0.o)
 .debug_frame   0x0000000000006d28       0x58 ./lib/emvlib.a(hal_scs_handler.o)
 .debug_frame   0x0000000000006d80       0x28 ./lib/emvlib.a(hal_scs_t0_in.o)
 .debug_frame   0x0000000000006da8       0x28 ./lib/emvlib.a(hal_scs_t0_out.o)
 .debug_frame   0x0000000000006dd0       0x40 ./lib/emvlib.a(hal_scs_vsr_t0_in.o)
 .debug_frame   0x0000000000006e10       0x40 ./lib/emvlib.a(hal_scs_vsr_t0_out.o)

.debug_pubnames
                0x0000000000000000     0x968c
 .debug_pubnames
                0x0000000000000000      0x3b9 ././tmsdown.o
 .debug_pubnames
                0x00000000000003b9       0x33 ././timeconv.o
 .debug_pubnames
                0x00000000000003ec      0x5ee ././scard.o
 .debug_pubnames
                0x00000000000009da       0x2e ././reftable.o
 .debug_pubnames
                0x0000000000000a08       0x35 ././prtmsg.o
 .debug_pubnames
                0x0000000000000a3d      0x1aa ././rtc.o
 .debug_pubnames
                0x0000000000000be7      0x5f7 ././apppos.o
 .debug_pubnames
                0x00000000000011de       0xc4 ././rs232.o
 .debug_pubnames
                0x00000000000012a2      0x4c3 ././printer.o
 .debug_pubnames
                0x0000000000001765      0x128 ././main.o
 .debug_pubnames
                0x000000000000188d       0x73 ././lcdmsg.o
 .debug_pubnames
                0x0000000000001900      0x220 ././modem.o
 .debug_pubnames
                0x0000000000001b20      0x337 ././flash.o
 .debug_pubnames
                0x0000000000001e57      0x3fe ././key.o
 .debug_pubnames
                0x0000000000002255      0x2eb ././htmlutil.o
 .debug_pubnames
                0x0000000000002540      0x130 ././hwtest.o
 .debug_pubnames
                0x0000000000002670      0x225 ././sfontlib.o
 .debug_pubnames
                0x0000000000002895      0x51b ././gsm.o
 .debug_pubnames
                0x0000000000002db0      0x116 ././msr.o
 .debug_pubnames
                0x0000000000002ec6     0x1f32 ././btlib/bt_driver/asmutil.o
 .debug_pubnames
                0x0000000000004df8      0x357 ././btlib/bt_driver/prtutil.o
 .debug_pubnames
                0x000000000000514f       0x1e ././btlib/bt_driver/prtfont.o
 .debug_pubnames
                0x000000000000516d      0x2fd ././btlib/bt_driver/cryptolib.o
 .debug_pubnames
                0x000000000000546a      0x29f ././btlib/bt_driver/ppdrv.o
 .debug_pubnames
                0x0000000000005709       0x8c ././btlib/lib/beeplib.o
 .debug_pubnames
                0x0000000000005795      0x1f5 ././btlib/lib/btsclib.o
 .debug_pubnames
                0x000000000000598a       0xc7 ././btlib/lib/commlib.o
 .debug_pubnames
                0x0000000000005a51       0x29 ././btlib/lib/country.o
 .debug_pubnames
                0x0000000000005a7a       0x27 ././btlib/lib/frmwri.o
 .debug_pubnames
                0x0000000000005aa1       0x62 ././btlib/lib/gsmlib.o
 .debug_pubnames
                0x0000000000005b03       0xcf ././btlib/lib/iconlib.o
 .debug_pubnames
                0x0000000000005bd2      0x13c ././btlib/lib/keylib.o
 .debug_pubnames
                0x0000000000005d0e      0x122 ././btlib/lib/lcdlib.o
 .debug_pubnames
                0x0000000000005e30       0x2b ././btlib/lib/libc.o
 .debug_pubnames
                0x0000000000005e5b      0x4db ././btlib/lib/magtek_msr.o
 .debug_pubnames
                0x0000000000006336       0xd9 ././btlib/lib/memlib.o
 .debug_pubnames
                0x000000000000640f       0xef ././btlib/lib/msrlib.o
 .debug_pubnames
                0x00000000000064fe       0x6a ././btlib/lib/printf.o
 .debug_pubnames
                0x0000000000006568       0x27 ././btlib/lib/prtbitellogo.o
 .debug_pubnames
                0x000000000000658f       0x24 ././btlib/lib/prtpmlogo.o
 .debug_pubnames
                0x00000000000065b3      0x10c ././btlib/lib/rtclib.o
 .debug_pubnames
                0x00000000000066bf       0x4a ././btlib/lib/sysinfo.o
 .debug_pubnames
                0x0000000000006709       0xd8 ././btlib/lib/timerlib.o
 .debug_pubnames
                0x00000000000067e1      0x266 ././btlib/lib/tmslib.o
 .debug_pubnames
                0x0000000000006a47       0x3e ././btlib/lib/unzip.o
 .debug_pubnames
                0x0000000000006a85      0x252 ././btlib/lib/utillib.o
 .debug_pubnames
                0x0000000000006cd7       0x1b ./lib/atoflib.a(_ATOF.o)
 .debug_pubnames
                0x0000000000006cf2       0x3a ./lib/atoflib.a(__AFCNV.o)
 .debug_pubnames
                0x0000000000006d2c       0x1f ./lib/libe.a(_divdf3.o)
 .debug_pubnames
                0x0000000000006d4b       0x1f ./lib/libe.a(_muldf3.o)
 .debug_pubnames
                0x0000000000006d6a       0x2c ./lib/libe.a(_adddf3.o)
 .debug_pubnames
                0x0000000000006d96       0x20 ./lib/libe.a(_fixdfsi.o)
 .debug_pubnames
                0x0000000000006db6       0x22 ./lib/libe.a(_floatsidf.o)
 .debug_pubnames
                0x0000000000006dd8       0x1e ./lib/libe.a(_nedf2.o)
 .debug_pubnames
                0x0000000000006df6       0x1e ./lib/libe.a(_gedf2.o)
 .debug_pubnames
                0x0000000000006e14       0x1e ./lib/libe.a(_ltdf2.o)
 .debug_pubnames
                0x0000000000006e32       0x1e ./lib/libe.a(_ledf2.o)
 .debug_pubnames
                0x0000000000006e50       0x21 ./lib/libe.a(_orderdf2.o)
 .debug_pubnames
                0x0000000000006e71      0x152 ./lib/emvlib.a(sc_at83c26.o)
 .debug_pubnames
                0x0000000000006fc3       0x42 ./lib/emvlib.a(emv_init.o)
 .debug_pubnames
                0x0000000000007005       0x75 ./lib/emvlib.a(emv_timer.o)
 .debug_pubnames
                0x000000000000707a       0x25 ./lib/emvlib.a(hal_scs_cancel.o)
 .debug_pubnames
                0x000000000000709f      0x16d ./lib/emvlib.a(hal_scs_dev.o)
 .debug_pubnames
                0x000000000000720c       0x23 ./lib/emvlib.a(hal_scs_init.o)
 .debug_pubnames
                0x000000000000722f       0x24 ./lib/emvlib.a(hal_scs_ioctl.o)
 .debug_pubnames
                0x0000000000007253       0x55 ./lib/emvlib.a(hal_scs_isr.o)
 .debug_pubnames
                0x00000000000072a8       0x29 ./lib/emvlib.a(hal_scs_set_config.o)
 .debug_pubnames
                0x00000000000072d1      0x1ba ./lib/emvlib.a(hal_apm.o)
 .debug_pubnames
                0x000000000000748b      0x20e ./lib/emvlib.a(hal_flash.o)
 .debug_pubnames
                0x0000000000007699      0x116 ./lib/emvlib.a(hal_i2c.o)
 .debug_pubnames
                0x00000000000077af       0x94 ./lib/emvlib.a(hal_intr.o)
 .debug_pubnames
                0x0000000000007843       0x3f ./lib/emvlib.a(hal_libc.o)
 .debug_pubnames
                0x0000000000007882       0xa8 ./lib/emvlib.a(hal_sys_alloc.o)
 .debug_pubnames
                0x000000000000792a      0x13a ./lib/emvlib.a(hal_timer.o)
 .debug_pubnames
                0x0000000000007a64      0x167 ./lib/emvlib.a(at83c26_api.o)
 .debug_pubnames
                0x0000000000007bcb       0xa2 ./lib/emvlib.a(at83c26_lib.o)
 .debug_pubnames
                0x0000000000007c6d       0x6d ./lib/emvlib.a(hal_scs_analog.o)
 .debug_pubnames
                0x0000000000007cda       0x28 ./lib/emvlib.a(hal_scs_clock.o)
 .debug_pubnames
                0x0000000000007d02       0xf1 ./lib/emvlib.a(hal_scs_counter.o)
 .debug_pubnames
                0x0000000000007df3       0xe1 ./lib/emvl2.a(DES_ECB.o)
 .debug_pubnames
                0x0000000000007ed4      0x506 ./lib/emvl2.a(EMV_APP.o)
 .debug_pubnames
                0x00000000000083da      0x297 ./lib/emvl2.a(EMV_CAT.o)
 .debug_pubnames
                0x0000000000008671      0x35e ./lib/emvl2.a(emv_APDU.o)
 .debug_pubnames
                0x00000000000089cf       0x93 ./lib/emvl2.a(gem_TL.o)
 .debug_pubnames
                0x0000000000008a62      0x1ef ./lib/emvl2.a(r_enhanc.o)
 .debug_pubnames
                0x0000000000008c51       0x28 ./lib/emvl2.a(r_keygen.o)
 .debug_pubnames
                0x0000000000008c79       0x9a ./lib/emvl2.a(r_random.o)
 .debug_pubnames
                0x0000000000008d13       0x9b ./lib/emvl2.a(rsa.o)
 .debug_pubnames
                0x0000000000008dae       0x57 ./lib/emvl2.a(shsc.o)
 .debug_pubnames
                0x0000000000008e05      0x11b ./lib/emvl2.a(NN.o)
 .debug_pubnames
                0x0000000000008f20       0xf2 ./lib/emvl2.a(desc.o)
 .debug_pubnames
                0x0000000000009012       0x39 ./lib/emvl2.a(md2c.o)
 .debug_pubnames
                0x000000000000904b       0x39 ./lib/emvl2.a(md4c.o)
 .debug_pubnames
                0x0000000000009084       0x39 ./lib/emvl2.a(md5c.o)
 .debug_pubnames
                0x00000000000090bd       0x24 ./lib/emvl2.a(prime.o)
 .debug_pubnames
                0x00000000000090e1       0x3c ./lib/emvl2.a(r_encode.o)
 .debug_pubnames
                0x000000000000911d       0xad ./lib/emvlib.a(emv_power_up.o)
 .debug_pubnames
                0x00000000000091ca       0x28 ./lib/emvlib.a(emv_set_slot_info.o)
 .debug_pubnames
                0x00000000000091f2       0x61 ./lib/emvlib.a(emv_t1.o)
 .debug_pubnames
                0x0000000000009253       0x23 ./lib/emvlib.a(emv_transmit.o)
 .debug_pubnames
                0x0000000000009276       0x25 ./lib/emvlib.a(hal_scs_attach.o)
 .debug_pubnames
                0x000000000000929b       0x2d ./lib/emvlib.a(hal_scs_get_last_error.o)
 .debug_pubnames
                0x00000000000092c8       0x2c ./lib/emvlib.a(hal_scs_get_slot_info.o)
 .debug_pubnames
                0x00000000000092f4       0x29 ./lib/emvlib.a(hal_scs_get_status.o)
 .debug_pubnames
                0x000000000000931d       0x29 ./lib/emvlib.a(hal_scs_power_down.o)
 .debug_pubnames
                0x0000000000009346       0x27 ./lib/emvlib.a(hal_scs_power_up.o)
 .debug_pubnames
                0x000000000000936d       0x2b ./lib/emvlib.a(hal_scs_pps_exchange.o)
 .debug_pubnames
                0x0000000000009398       0x2c ./lib/emvlib.a(hal_scs_set_slot_info.o)
 .debug_pubnames
                0x00000000000093c4       0x27 ./lib/emvlib.a(hal_scs_t1_block.o)
 .debug_pubnames
                0x00000000000093eb       0x84 ./lib/emvlib.a(hal_scs_vsr_power_up.o)
 .debug_pubnames
                0x000000000000946f       0x2f ./lib/emvlib.a(hal_scs_vsr_pps_exchange.o)
 .debug_pubnames
                0x000000000000949e       0x45 ./lib/emvlib.a(hal_scs_vsr_t1_block.o)
 .debug_pubnames
                0x00000000000094e3       0x53 ./lib/emvlib.a(emv_atr.o)
 .debug_pubnames
                0x0000000000009536       0x25 ./lib/emvlib.a(emv_power_down.o)
 .debug_pubnames
                0x000000000000955b       0x39 ./lib/emvlib.a(emv_t0.o)
 .debug_pubnames
                0x0000000000009594       0x5e ./lib/emvlib.a(hal_scs_handler.o)
 .debug_pubnames
                0x00000000000095f2       0x24 ./lib/emvlib.a(hal_scs_t0_in.o)
 .debug_pubnames
                0x0000000000009616       0x25 ./lib/emvlib.a(hal_scs_t0_out.o)
 .debug_pubnames
                0x000000000000963b       0x28 ./lib/emvlib.a(hal_scs_vsr_t0_in.o)
 .debug_pubnames
                0x0000000000009663       0x29 ./lib/emvlib.a(hal_scs_vsr_t0_out.o)

.debug_aranges  0x0000000000000000     0x1970
 .debug_aranges
                0x0000000000000000       0x20 ././tmsdown.o
 .debug_aranges
                0x0000000000000020       0x20 ././timeconv.o
 .debug_aranges
                0x0000000000000040       0x20 ././scard.o
 .debug_aranges
                0x0000000000000060       0x20 ././rtc.o
 .debug_aranges
                0x0000000000000080       0x20 ././apppos.o
 .debug_aranges
                0x00000000000000a0       0x20 ././rs232.o
 .debug_aranges
                0x00000000000000c0       0x20 ././printer.o
 .debug_aranges
                0x00000000000000e0       0x20 ././main.o
 .debug_aranges
                0x0000000000000100       0x20 ././modem.o
 .debug_aranges
                0x0000000000000120       0x20 ././flash.o
 .debug_aranges
                0x0000000000000140       0x20 ././key.o
 .debug_aranges
                0x0000000000000160       0x20 ././htmlutil.o
 .debug_aranges
                0x0000000000000180       0x20 ././hwtest.o
 .debug_aranges
                0x00000000000001a0       0x20 ././sfontlib.o
 .debug_aranges
                0x00000000000001c0       0x20 ././gsm.o
 .debug_aranges
                0x00000000000001e0       0x20 ././msr.o
 .debug_aranges
                0x0000000000000200      0x5f0 ././btlib/bt_driver/asmutil.o
 .debug_aranges
                0x00000000000007f0      0x100 ././btlib/bt_driver/prtutil.o
 .debug_aranges
                0x00000000000008f0       0x20 ././btlib/bt_driver/cryptolib.o
 .debug_aranges
                0x0000000000000910       0x20 ././btlib/bt_driver/ppdrv.o
 .debug_aranges
                0x0000000000000930       0x48 ././btlib/lib/beeplib.o
 .debug_aranges
                0x0000000000000978      0x168 ././btlib/lib/btsclib.o
 .debug_aranges
                0x0000000000000ae0       0x60 ././btlib/lib/commlib.o
 .debug_aranges
                0x0000000000000b40       0x20 ././btlib/lib/frmwri.o
 .debug_aranges
                0x0000000000000b60       0x20 ././btlib/lib/gsmlib.o
 .debug_aranges
                0x0000000000000b80       0x20 ././btlib/lib/iconlib.o
 .debug_aranges
                0x0000000000000ba0       0x80 ././btlib/lib/keylib.o
 .debug_aranges
                0x0000000000000c20       0x88 ././btlib/lib/lcdlib.o
 .debug_aranges
                0x0000000000000ca8       0x20 ././btlib/lib/libc.o
 .debug_aranges
                0x0000000000000cc8       0x20 ././btlib/lib/magtek_msr.o
 .debug_aranges
                0x0000000000000ce8       0x48 ././btlib/lib/memlib.o
 .debug_aranges
                0x0000000000000d30       0x68 ././btlib/lib/msrlib.o
 .debug_aranges
                0x0000000000000d98       0x20 ././btlib/lib/printf.o
 .debug_aranges
                0x0000000000000db8       0x70 ././btlib/lib/rtclib.o
 .debug_aranges
                0x0000000000000e28       0x30 ././btlib/lib/sysinfo.o
 .debug_aranges
                0x0000000000000e58       0x60 ././btlib/lib/timerlib.o
 .debug_aranges
                0x0000000000000eb8       0x90 ././btlib/lib/tmslib.o
 .debug_aranges
                0x0000000000000f48       0xc8 ././btlib/lib/unzip.o
 .debug_aranges
                0x0000000000001010       0x20 ././btlib/lib/utillib.o
 .debug_aranges
                0x0000000000001030       0x20 ./lib/atoflib.a(_ATOF.o)
 .debug_aranges
                0x0000000000001050       0x20 ./lib/atoflib.a(__AFCNV.o)
 .debug_aranges
                0x0000000000001070       0x20 ./lib/libe.a(_divdf3.o)
 .debug_aranges
                0x0000000000001090       0x20 ./lib/libe.a(_muldf3.o)
 .debug_aranges
                0x00000000000010b0       0x20 ./lib/libe.a(_adddf3.o)
 .debug_aranges
                0x00000000000010d0       0x20 ./lib/libe.a(_fixdfsi.o)
 .debug_aranges
                0x00000000000010f0       0x20 ./lib/libe.a(_floatsidf.o)
 .debug_aranges
                0x0000000000001110       0x20 ./lib/libe.a(_nedf2.o)
 .debug_aranges
                0x0000000000001130       0x20 ./lib/libe.a(_gedf2.o)
 .debug_aranges
                0x0000000000001150       0x20 ./lib/libe.a(_ltdf2.o)
 .debug_aranges
                0x0000000000001170       0x20 ./lib/libe.a(_ledf2.o)
 .debug_aranges
                0x0000000000001190       0x20 ./lib/libe.a(_orderdf2.o)
 .debug_aranges
                0x00000000000011b0       0x20 ./lib/emvlib.a(sc_at83c26.o)
 .debug_aranges
                0x00000000000011d0       0x20 ./lib/emvlib.a(emv_init.o)
 .debug_aranges
                0x00000000000011f0       0x20 ./lib/emvlib.a(emv_timer.o)
 .debug_aranges
                0x0000000000001210       0x20 ./lib/emvlib.a(hal_scs_cancel.o)
 .debug_aranges
                0x0000000000001230       0x20 ./lib/emvlib.a(hal_scs_dev.o)
 .debug_aranges
                0x0000000000001250       0x20 ./lib/emvlib.a(hal_scs_init.o)
 .debug_aranges
                0x0000000000001270       0x20 ./lib/emvlib.a(hal_scs_ioctl.o)
 .debug_aranges
                0x0000000000001290       0x20 ./lib/emvlib.a(hal_scs_isr.o)
 .debug_aranges
                0x00000000000012b0       0x20 ./lib/emvlib.a(hal_scs_set_config.o)
 .debug_aranges
                0x00000000000012d0       0x20 ./lib/emvlib.a(hal_apm.o)
 .debug_aranges
                0x00000000000012f0       0x20 ./lib/emvlib.a(hal_flash.o)
 .debug_aranges
                0x0000000000001310       0x20 ./lib/emvlib.a(hal_i2c.o)
 .debug_aranges
                0x0000000000001330       0x20 ./lib/emvlib.a(hal_intr.o)
 .debug_aranges
                0x0000000000001350       0x20 ./lib/emvlib.a(hal_libc.o)
 .debug_aranges
                0x0000000000001370       0x20 ./lib/emvlib.a(hal_sys_alloc.o)
 .debug_aranges
                0x0000000000001390       0x20 ./lib/emvlib.a(hal_timer.o)
 .debug_aranges
                0x00000000000013b0       0x20 ./lib/emvlib.a(at83c26_api.o)
 .debug_aranges
                0x00000000000013d0       0x20 ./lib/emvlib.a(at83c26_lib.o)
 .debug_aranges
                0x00000000000013f0       0x20 ./lib/emvlib.a(hal_scs_analog.o)
 .debug_aranges
                0x0000000000001410       0x20 ./lib/emvlib.a(hal_scs_clock.o)
 .debug_aranges
                0x0000000000001430       0x20 ./lib/emvlib.a(hal_scs_counter.o)
 .debug_aranges
                0x0000000000001450       0x20 ./lib/emvl2.a(DES_ECB.o)
 .debug_aranges
                0x0000000000001470       0x20 ./lib/emvl2.a(EMV_APP.o)
 .debug_aranges
                0x0000000000001490       0x20 ./lib/emvl2.a(EMV_CAT.o)
 .debug_aranges
                0x00000000000014b0       0x20 ./lib/emvl2.a(emv_APDU.o)
 .debug_aranges
                0x00000000000014d0       0x20 ./lib/emvl2.a(gem_TL.o)
 .debug_aranges
                0x00000000000014f0       0x20 ./lib/emvl2.a(r_enhanc.o)
 .debug_aranges
                0x0000000000001510       0x20 ./lib/emvl2.a(r_keygen.o)
 .debug_aranges
                0x0000000000001530       0x20 ./lib/emvl2.a(r_random.o)
 .debug_aranges
                0x0000000000001550       0x20 ./lib/emvl2.a(rsa.o)
 .debug_aranges
                0x0000000000001570       0x20 ./lib/emvl2.a(shsc.o)
 .debug_aranges
                0x0000000000001590       0x20 ./lib/emvl2.a(NN.o)
 .debug_aranges
                0x00000000000015b0       0x20 ./lib/emvl2.a(desc.o)
 .debug_aranges
                0x00000000000015d0       0x20 ./lib/emvl2.a(md2c.o)
 .debug_aranges
                0x00000000000015f0       0x20 ./lib/emvl2.a(md4c.o)
 .debug_aranges
                0x0000000000001610       0x20 ./lib/emvl2.a(md5c.o)
 .debug_aranges
                0x0000000000001630       0x20 ./lib/emvl2.a(prime.o)
 .debug_aranges
                0x0000000000001650       0x20 ./lib/emvl2.a(r_encode.o)
 .debug_aranges
                0x0000000000001670       0x20 ./lib/emvlib.a(emv_power_up.o)
 .debug_aranges
                0x0000000000001690       0x20 ./lib/emvlib.a(emv_set_slot_info.o)
 .debug_aranges
                0x00000000000016b0       0x20 ./lib/emvlib.a(emv_t1.o)
 .debug_aranges
                0x00000000000016d0       0x20 ./lib/emvlib.a(emv_transmit.o)
 .debug_aranges
                0x00000000000016f0       0x20 ./lib/emvlib.a(hal_scs_attach.o)
 .debug_aranges
                0x0000000000001710       0x20 ./lib/emvlib.a(hal_scs_get_last_error.o)
 .debug_aranges
                0x0000000000001730       0x20 ./lib/emvlib.a(hal_scs_get_slot_info.o)
 .debug_aranges
                0x0000000000001750       0x20 ./lib/emvlib.a(hal_scs_get_status.o)
 .debug_aranges
                0x0000000000001770       0x20 ./lib/emvlib.a(hal_scs_power_down.o)
 .debug_aranges
                0x0000000000001790       0x20 ./lib/emvlib.a(hal_scs_power_up.o)
 .debug_aranges
                0x00000000000017b0       0x20 ./lib/emvlib.a(hal_scs_pps_exchange.o)
 .debug_aranges
                0x00000000000017d0       0x20 ./lib/emvlib.a(hal_scs_set_slot_info.o)
 .debug_aranges
                0x00000000000017f0       0x20 ./lib/emvlib.a(hal_scs_t1_block.o)
 .debug_aranges
                0x0000000000001810       0x20 ./lib/emvlib.a(hal_scs_vsr_power_up.o)
 .debug_aranges
                0x0000000000001830       0x20 ./lib/emvlib.a(hal_scs_vsr_pps_exchange.o)
 .debug_aranges
                0x0000000000001850       0x20 ./lib/emvlib.a(hal_scs_vsr_t1_block.o)
 .debug_aranges
                0x0000000000001870       0x20 ./lib/emvlib.a(emv_atr.o)
 .debug_aranges
                0x0000000000001890       0x20 ./lib/emvlib.a(emv_power_down.o)
 .debug_aranges
                0x00000000000018b0       0x20 ./lib/emvlib.a(emv_t0.o)
 .debug_aranges
                0x00000000000018d0       0x20 ./lib/emvlib.a(hal_scs_handler.o)
 .debug_aranges
                0x00000000000018f0       0x20 ./lib/emvlib.a(hal_scs_t0_in.o)
 .debug_aranges
                0x0000000000001910       0x20 ./lib/emvlib.a(hal_scs_t0_out.o)
 .debug_aranges
                0x0000000000001930       0x20 ./lib/emvlib.a(hal_scs_vsr_t0_in.o)
 .debug_aranges
                0x0000000000001950       0x20 ./lib/emvlib.a(hal_scs_vsr_t0_out.o)

.debug_str      0x0000000000000000     0x1d83
 .debug_str     0x0000000000000000       0x59 ././tmsdown.o
 .debug_str     0x0000000000000059       0x12 ././timeconv.o
 .debug_str     0x000000000000006b       0xec ././scard.o
 .debug_str     0x0000000000000157       0x12 ././prtmsg.o
 .debug_str     0x0000000000000169       0x5f ././rtc.o
 .debug_str     0x00000000000001c8      0x215 ././apppos.o
 .debug_str     0x00000000000003dd       0x12 ././rs232.o
 .debug_str     0x00000000000003ef      0x217 ././printer.o
 .debug_str     0x0000000000000606      0x1fa ././main.o
 .debug_str     0x0000000000000800       0x12 ././lcdmsg.o
 .debug_str     0x0000000000000812      0x1e4 ././modem.o
 .debug_str     0x00000000000009f6       0x79 ././flash.o
 .debug_str     0x0000000000000a6f      0x24b ././key.o
 .debug_str     0x0000000000000cba       0xa3 ././htmlutil.o
 .debug_str     0x0000000000000d5d       0x12 ././hwtest.o
 .debug_str     0x0000000000000d6f       0xbd ././sfontlib.o
 .debug_str     0x0000000000000e2c      0x129 ././gsm.o
 .debug_str     0x0000000000000f55       0x12 ././msr.o
 .debug_str     0x0000000000000f67       0x7e ././btlib/bt_driver/asmutil.o
 .debug_str     0x0000000000000fe5       0x1c ././btlib/bt_driver/prtutil.o
 .debug_str     0x0000000000001001       0xa0 ././btlib/bt_driver/cryptolib.o
 .debug_str     0x00000000000010a1       0x2b ././btlib/bt_driver/ppdrv.o
 .debug_str     0x00000000000010cc       0x12 ././btlib/lib/btsclib.o
 .debug_str     0x00000000000010de       0x1a ././btlib/lib/commlib.o
 .debug_str     0x00000000000010f8       0x39 ././btlib/lib/frmwri.o
 .debug_str     0x0000000000001131       0x64 ././btlib/lib/gsmlib.o
 .debug_str     0x0000000000001195       0x12 ././btlib/lib/iconlib.o
 .debug_str     0x00000000000011a7       0x6c ././btlib/lib/keylib.o
 .debug_str     0x0000000000001213       0x20 ././btlib/lib/lcdlib.o
 .debug_str     0x0000000000001233       0xae ././btlib/lib/magtek_msr.o
 .debug_str     0x00000000000012e1       0x14 ././btlib/lib/memlib.o
 .debug_str     0x00000000000012f5       0x4f ././btlib/lib/msrlib.o
 .debug_str     0x0000000000001344       0x12 ././btlib/lib/printf.o
 .debug_str     0x0000000000001356       0x3e ././btlib/lib/rtclib.o
 .debug_str     0x0000000000001394        0xd ././btlib/lib/timerlib.o
 .debug_str     0x00000000000013a1       0x1d ././btlib/lib/tmslib.o
 .debug_str     0x00000000000013be       0x12 ././btlib/lib/unzip.o
 .debug_str     0x00000000000013d0       0x1d ././btlib/lib/utillib.o
 .debug_str     0x00000000000013ed       0x12 ./lib/atoflib.a(__AFCNV.o)
 .debug_str     0x00000000000013ff       0x72 ./lib/libe.a(_divdf3.o)
 .debug_str     0x0000000000001471        0x9 ./lib/libe.a(_muldf3.o)
                                         0x72 (size before relaxing)
 .debug_str     0x000000000000147a       0x12 ./lib/libe.a(_adddf3.o)
                                         0x7b (size before relaxing)
 .debug_str     0x000000000000148c        0xa ./lib/libe.a(_fixdfsi.o)
                                         0x73 (size before relaxing)
 .debug_str     0x0000000000001496        0xc ./lib/libe.a(_floatsidf.o)
                                         0x75 (size before relaxing)
 .debug_str     0x00000000000014a2       0x13 ./lib/libe.a(_nedf2.o)
                                         0x7c (size before relaxing)
 .debug_str     0x00000000000014b5        0x8 ./lib/libe.a(_gedf2.o)
                                         0x7c (size before relaxing)
 .debug_str     0x00000000000014bd        0x8 ./lib/libe.a(_ltdf2.o)
                                         0x7c (size before relaxing)
 .debug_str     0x00000000000014c5        0x8 ./lib/libe.a(_ledf2.o)
                                         0x7c (size before relaxing)
 .debug_str     0x00000000000014cd        0x0 ./lib/libe.a(_orderdf2.o)
                                         0x74 (size before relaxing)
 .debug_str     0x00000000000014cd       0x2a ./lib/emvlib.a(sc_at83c26.o)
 .debug_str     0x00000000000014f7       0x24 ./lib/emvlib.a(emv_init.o)
 .debug_str     0x000000000000151b       0x23 ./lib/emvlib.a(emv_timer.o)
 .debug_str     0x000000000000153e        0xb ./lib/emvlib.a(hal_scs_dev.o)
 .debug_str     0x0000000000001549       0x1b ./lib/emvlib.a(hal_scs_init.o)
 .debug_str     0x0000000000001564       0x12 ./lib/emvlib.a(hal_scs_ioctl.o)
 .debug_str     0x0000000000001576        0x7 ./lib/emvlib.a(hal_scs_isr.o)
 .debug_str     0x000000000000157d        0x9 ./lib/emvlib.a(hal_scs_set_config.o)
 .debug_str     0x0000000000001586        0xc ./lib/emvlib.a(hal_apm.o)
 .debug_str     0x0000000000001592       0x6d ./lib/emvlib.a(hal_flash.o)
 .debug_str     0x00000000000015ff       0x36 ./lib/emvlib.a(hal_i2c.o)
 .debug_str     0x0000000000001635        0x7 ./lib/emvlib.a(hal_intr.o)
 .debug_str     0x000000000000163c       0x1f ./lib/emvlib.a(hal_timer.o)
 .debug_str     0x000000000000165b       0x21 ./lib/emvlib.a(at83c26_api.o)
 .debug_str     0x000000000000167c       0x2b ./lib/emvlib.a(at83c26_lib.o)
 .debug_str     0x00000000000016a7        0xe ./lib/emvlib.a(hal_scs_analog.o)
 .debug_str     0x00000000000016b5       0x44 ./lib/emvl2.a(DES_ECB.o)
 .debug_str     0x00000000000016f9       0x48 ./lib/emvl2.a(EMV_APP.o)
 .debug_str     0x0000000000001741       0x27 ./lib/emvl2.a(EMV_CAT.o)
 .debug_str     0x0000000000001768       0x30 ./lib/emvl2.a(emv_APDU.o)
 .debug_str     0x0000000000001798       0x12 ./lib/emvl2.a(gem_TL.o)
 .debug_str     0x00000000000017aa      0x236 ./lib/emvl2.a(r_enhanc.o)
 .debug_str     0x00000000000019e0       0x1b ./lib/emvl2.a(r_keygen.o)
 .debug_str     0x00000000000019fb       0x2d ./lib/emvl2.a(r_random.o)
 .debug_str     0x0000000000001a28       0x79 ./lib/emvl2.a(rsa.o)
 .debug_str     0x0000000000001aa1       0x1a ./lib/emvl2.a(shsc.o)
 .debug_str     0x0000000000001abb       0x27 ./lib/emvl2.a(NN.o)
 .debug_str     0x0000000000001ae2       0x47 ./lib/emvl2.a(desc.o)
 .debug_str     0x0000000000001b29       0x23 ./lib/emvl2.a(md2c.o)
 .debug_str     0x0000000000001b4c       0x1a ./lib/emvl2.a(md4c.o)
 .debug_str     0x0000000000001b66       0x1a ./lib/emvl2.a(md5c.o)
 .debug_str     0x0000000000001b80       0x12 ./lib/emvl2.a(prime.o)
 .debug_str     0x0000000000001b92       0x12 ./lib/emvl2.a(r_encode.o)
 .debug_str     0x0000000000001ba4       0x4d ./lib/emvlib.a(emv_power_up.o)
 .debug_str     0x0000000000001bf1       0x1b ./lib/emvlib.a(emv_set_slot_info.o)
 .debug_str     0x0000000000001c0c       0x43 ./lib/emvlib.a(emv_t1.o)
 .debug_str     0x0000000000001c4f       0x12 ./lib/emvlib.a(emv_transmit.o)
 .debug_str     0x0000000000001c61        0x9 ./lib/emvlib.a(hal_scs_get_slot_info.o)
 .debug_str     0x0000000000001c6a       0x12 ./lib/emvlib.a(hal_scs_power_down.o)
 .debug_str     0x0000000000001c7c       0x12 ./lib/emvlib.a(hal_scs_power_up.o)
 .debug_str     0x0000000000001c8e       0x12 ./lib/emvlib.a(hal_scs_pps_exchange.o)
 .debug_str     0x0000000000001ca0       0x1b ./lib/emvlib.a(hal_scs_set_slot_info.o)
 .debug_str     0x0000000000001cbb       0x12 ./lib/emvlib.a(hal_scs_t1_block.o)
 .debug_str     0x0000000000001ccd       0x27 ./lib/emvlib.a(hal_scs_vsr_power_up.o)
 .debug_str     0x0000000000001cf4       0x2b ./lib/emvlib.a(emv_atr.o)
 .debug_str     0x0000000000001d1f       0x2e ./lib/emvlib.a(emv_t0.o)
 .debug_str     0x0000000000001d4d       0x12 ./lib/emvlib.a(hal_scs_t0_in.o)
 .debug_str     0x0000000000001d5f       0x12 ./lib/emvlib.a(hal_scs_t0_out.o)
 .debug_str     0x0000000000001d71       0x12 ./lib/emvlib.a(hal_scs_vsr_t0_in.o)

.comment        0x0000000000000000     0x190c
 .comment       0x0000000000000000       0x2b ././tmsdown.o
 .comment       0x000000000000002b       0x2b ././timeconv.o
 .comment       0x0000000000000056       0x2b ././scard.o
 .comment       0x0000000000000081       0x2b ././reftable.o
 .comment       0x00000000000000ac       0x2b ././prtmsg.o
 .comment       0x00000000000000d7       0x2b ././rtc.o
 .comment       0x0000000000000102       0x2b ././apppos.o
 .comment       0x000000000000012d       0x2b ././rs232.o
 .comment       0x0000000000000158       0x2b ././printer.o
 .comment       0x0000000000000183       0x2b ././main.o
 .comment       0x00000000000001ae       0x2b ././lcdmsg.o
 .comment       0x00000000000001d9       0x2b ././modem.o
 .comment       0x0000000000000204       0x2b ././flash.o
 .comment       0x000000000000022f       0x2b ././key.o
 .comment       0x000000000000025a       0x2b ././htmlutil.o
 .comment       0x0000000000000285       0x2b ././hwtest.o
 .comment       0x00000000000002b0       0x2b ././sfontlib.o
 .comment       0x00000000000002db       0x2b ././gsm.o
 .comment       0x0000000000000306       0x2b ././msr.o
 .comment       0x0000000000000331       0x2b ././btlib/bt_driver/asmutil.o
 .comment       0x000000000000035c       0x2b ././btlib/bt_driver/prtutil.o
 .comment       0x0000000000000387       0x2b ././btlib/bt_driver/prtfont.o
 .comment       0x00000000000003b2       0x2b ././btlib/bt_driver/cryptolib.o
 .comment       0x00000000000003dd       0x2b ././btlib/bt_driver/ppdrv.o
 .comment       0x0000000000000408       0x2b ././btlib/lib/beeplib.o
 .comment       0x0000000000000433       0x2b ././btlib/lib/btsclib.o
 .comment       0x000000000000045e       0x2b ././btlib/lib/commlib.o
 .comment       0x0000000000000489       0x2b ././btlib/lib/country.o
 .comment       0x00000000000004b4       0x2b ././btlib/lib/frmwri.o
 .comment       0x00000000000004df       0x2b ././btlib/lib/gsmlib.o
 .comment       0x000000000000050a       0x2b ././btlib/lib/iconlib.o
 .comment       0x0000000000000535       0x2b ././btlib/lib/keylib.o
 .comment       0x0000000000000560       0x2b ././btlib/lib/lcdlib.o
 .comment       0x000000000000058b       0x2b ././btlib/lib/libc.o
 .comment       0x00000000000005b6       0x2b ././btlib/lib/magtek_msr.o
 .comment       0x00000000000005e1       0x2b ././btlib/lib/memlib.o
 .comment       0x000000000000060c       0x2b ././btlib/lib/msrlib.o
 .comment       0x0000000000000637       0x2b ././btlib/lib/printf.o
 .comment       0x0000000000000662       0x2b ././btlib/lib/prtbitellogo.o
 .comment       0x000000000000068d       0x2b ././btlib/lib/prtpmlogo.o
 .comment       0x00000000000006b8       0x2b ././btlib/lib/rtclib.o
 .comment       0x00000000000006e3       0x2b ././btlib/lib/sysinfo.o
 .comment       0x000000000000070e       0x2b ././btlib/lib/timerlib.o
 .comment       0x0000000000000739       0x2b ././btlib/lib/tmslib.o
 .comment       0x0000000000000764       0x2b ././btlib/lib/unzip.o
 .comment       0x000000000000078f       0x2b ././btlib/lib/utillib.o
 .comment       0x00000000000007ba       0x2b ./lib/atoflib.a(_ATOF.o)
 .comment       0x00000000000007e5       0x2b ./lib/atoflib.a(__AFCNV.o)
 .comment       0x0000000000000810       0xc7 ./lib/libe.a(_divdf3.o)
 .comment       0x00000000000008d7       0xc7 ./lib/libe.a(_muldf3.o)
 .comment       0x000000000000099e       0xc7 ./lib/libe.a(_adddf3.o)
 .comment       0x0000000000000a65       0xc8 ./lib/libe.a(_fixdfsi.o)
 .comment       0x0000000000000b2d       0xc8 ./lib/libe.a(_floatsidf.o)
 .comment       0x0000000000000bf5       0x79 ./lib/libe.a(_nedf2.o)
 .comment       0x0000000000000c6e       0x79 ./lib/libe.a(_gedf2.o)
 .comment       0x0000000000000ce7       0x79 ./lib/libe.a(_ltdf2.o)
 .comment       0x0000000000000d60       0x79 ./lib/libe.a(_ledf2.o)
 .comment       0x0000000000000dd9       0xc9 ./lib/libe.a(_orderdf2.o)
 .comment       0x0000000000000ea2       0x2b ./lib/emvlib.a(sc_at83c26.o)
 .comment       0x0000000000000ecd       0x2b ./lib/emvlib.a(emv_init.o)
 .comment       0x0000000000000ef8       0x2b ./lib/emvlib.a(emv_timer.o)
 .comment       0x0000000000000f23       0x2b ./lib/emvlib.a(hal_scs_cancel.o)
 .comment       0x0000000000000f4e       0x2b ./lib/emvlib.a(hal_scs_dev.o)
 .comment       0x0000000000000f79       0x2b ./lib/emvlib.a(hal_scs_init.o)
 .comment       0x0000000000000fa4       0x2b ./lib/emvlib.a(hal_scs_ioctl.o)
 .comment       0x0000000000000fcf       0x2b ./lib/emvlib.a(hal_scs_isr.o)
 .comment       0x0000000000000ffa       0x2b ./lib/emvlib.a(hal_scs_set_config.o)
 .comment       0x0000000000001025       0x2b ./lib/emvlib.a(hal_apm.o)
 .comment       0x0000000000001050       0x2b ./lib/emvlib.a(hal_flash.o)
 .comment       0x000000000000107b       0x2b ./lib/emvlib.a(hal_i2c.o)
 .comment       0x00000000000010a6       0x2b ./lib/emvlib.a(hal_intr.o)
 .comment       0x00000000000010d1       0x2b ./lib/emvlib.a(hal_libc.o)
 .comment       0x00000000000010fc       0x2b ./lib/emvlib.a(hal_sys_alloc.o)
 .comment       0x0000000000001127       0x2b ./lib/emvlib.a(hal_timer.o)
 .comment       0x0000000000001152       0x2b ./lib/emvlib.a(at83c26_api.o)
 .comment       0x000000000000117d       0x2b ./lib/emvlib.a(at83c26_lib.o)
 .comment       0x00000000000011a8       0x2b ./lib/emvlib.a(hal_scs_analog.o)
 .comment       0x00000000000011d3       0x2b ./lib/emvlib.a(hal_scs_clock.o)
 .comment       0x00000000000011fe       0x2b ./lib/emvlib.a(hal_scs_counter.o)
 .comment       0x0000000000001229       0x2b ./lib/emvl2.a(DES_ECB.o)
 .comment       0x0000000000001254       0x2b ./lib/emvl2.a(EMV_APP.o)
 .comment       0x000000000000127f       0x2b ./lib/emvl2.a(EMV_CAT.o)
 .comment       0x00000000000012aa       0x2b ./lib/emvl2.a(emv_APDU.o)
 .comment       0x00000000000012d5       0x2b ./lib/emvl2.a(gem_TL.o)
 .comment       0x0000000000001300       0x2b ./lib/emvl2.a(r_enhanc.o)
 .comment       0x000000000000132b       0x2b ./lib/emvl2.a(r_keygen.o)
 .comment       0x0000000000001356       0x2b ./lib/emvl2.a(r_random.o)
 .comment       0x0000000000001381       0x2b ./lib/emvl2.a(rsa.o)
 .comment       0x00000000000013ac       0x2b ./lib/emvl2.a(shsc.o)
 .comment       0x00000000000013d7       0x2b ./lib/emvl2.a(NN.o)
 .comment       0x0000000000001402       0x2b ./lib/emvl2.a(desc.o)
 .comment       0x000000000000142d       0x2b ./lib/emvl2.a(md2c.o)
 .comment       0x0000000000001458       0x2b ./lib/emvl2.a(md4c.o)
 .comment       0x0000000000001483       0x2b ./lib/emvl2.a(md5c.o)
 .comment       0x00000000000014ae       0x2b ./lib/emvl2.a(prime.o)
 .comment       0x00000000000014d9       0x2b ./lib/emvl2.a(r_encode.o)
 .comment       0x0000000000001504       0x2b ./lib/emvlib.a(emv_power_up.o)
 .comment       0x000000000000152f       0x2b ./lib/emvlib.a(emv_set_slot_info.o)
 .comment       0x000000000000155a       0x2b ./lib/emvlib.a(emv_t1.o)
 .comment       0x0000000000001585       0x2b ./lib/emvlib.a(emv_transmit.o)
 .comment       0x00000000000015b0       0x2b ./lib/emvlib.a(hal_scs_attach.o)
 .comment       0x00000000000015db       0x2b ./lib/emvlib.a(hal_scs_get_last_error.o)
 .comment       0x0000000000001606       0x2b ./lib/emvlib.a(hal_scs_get_slot_info.o)
 .comment       0x0000000000001631       0x2b ./lib/emvlib.a(hal_scs_get_status.o)
 .comment       0x000000000000165c       0x2b ./lib/emvlib.a(hal_scs_power_down.o)
 .comment       0x0000000000001687       0x2b ./lib/emvlib.a(hal_scs_power_up.o)
 .comment       0x00000000000016b2       0x2b ./lib/emvlib.a(hal_scs_pps_exchange.o)
 .comment       0x00000000000016dd       0x2b ./lib/emvlib.a(hal_scs_set_slot_info.o)
 .comment       0x0000000000001708       0x2b ./lib/emvlib.a(hal_scs_t1_block.o)
 .comment       0x0000000000001733       0x2b ./lib/emvlib.a(hal_scs_vsr_power_up.o)
 .comment       0x000000000000175e       0x2b ./lib/emvlib.a(hal_scs_vsr_pps_exchange.o)
 .comment       0x0000000000001789       0x2b ./lib/emvlib.a(hal_scs_vsr_t1_block.o)
 .comment       0x00000000000017b4       0x2b ./lib/emvlib.a(emv_atr.o)
 .comment       0x00000000000017df       0x2b ./lib/emvlib.a(emv_power_down.o)
 .comment       0x000000000000180a       0x2b ./lib/emvlib.a(emv_t0.o)
 .comment       0x0000000000001835       0x2b ./lib/emvlib.a(hal_scs_handler.o)
 .comment       0x0000000000001860       0x2b ./lib/emvlib.a(hal_scs_t0_in.o)
 .comment       0x000000000000188b       0x2b ./lib/emvlib.a(hal_scs_t0_out.o)
 .comment       0x00000000000018b6       0x2b ./lib/emvlib.a(hal_scs_vsr_t0_in.o)
 .comment       0x00000000000018e1       0x2b ./lib/emvlib.a(hal_scs_vsr_t0_out.o)

.stab           0x0000000000000000    0x22590
 .stab          0x0000000000000000     0x10bc ././btlib/bt_driver/cstartup.o
 .stab          0x00000000000010bc    0x20b80 ././btlib/bt_driver/btutils.o
                                      0x20b8c (size before relaxing)
 .stab          0x0000000000021c3c      0x834 ./lib/emvlib.a(hal_apm_clock.o)
                                        0x840 (size before relaxing)
 .stab          0x0000000000022470      0x120 ./lib/emvlib.a(hal_intr_mask.o)
                                        0x12c (size before relaxing)

.stabstr        0x0000000000000000      0x980
 .stabstr       0x0000000000000000      0x980 ././btlib/bt_driver/cstartup.o
